 binding

 Timestamp is 56af150b (Mon Feb 01 13:49:23 2016)

 Preferred load address is 10000000

 Start         Length     Name                   Class
 0001:00000000 00000000H .text$di                CODE
 0001:00000000 0001224eH .text$mn                CODE
 0001:00012250 0000027eH .text$x                 CODE
 0001:000124d0 00000000H .text$yd                CODE
 0002:00000000 00000104H .idata$5                DATA
 0002:00000104 00000004H .CRT$XCA                DATA
 0002:00000108 00000004H .CRT$XCU                DATA
 0002:0000010c 00000004H .CRT$XCZ                DATA
 0002:00000110 00000004H .CRT$XIA                DATA
 0002:00000114 00000010H .CRT$XIC                DATA
 0002:00000124 00000004H .CRT$XIZ                DATA
 0002:00000128 00000004H .CRT$XPA                DATA
 0002:0000012c 00000008H .CRT$XPX                DATA
 0002:00000134 00000004H .CRT$XPXA               DATA
 0002:00000138 00000004H .CRT$XPZ                DATA
 0002:0000013c 00000004H .CRT$XTA                DATA
 0002:00000140 00000004H .CRT$XTZ                DATA
 0002:00000150 00005fa8H .rdata                  DATA
 0002:000060f8 0000007cH .rdata$debug            DATA
 0002:00006174 00000214H .rdata$r                DATA
 0002:00006390 00000044H .rdata$sxdata           DATA
 0002:000063d4 00000004H .rtc$IAA                DATA
 0002:000063d8 00000004H .rtc$IZZ                DATA
 0002:000063dc 00000004H .rtc$TAA                DATA
 0002:000063e0 00000004H .rtc$TZZ                DATA
 0002:000063e8 0000081cH .xdata$x                DATA
 0002:00006c04 00000020H .didat$2                DATA
 0002:00006c24 00000020H .didat$3                DATA
 0002:00006c44 000000b4H .didat$4                DATA
 0002:00006cf8 00000b18H .didat$6                DATA
 0002:00007810 000000b4H .didat$7                DATA
 0002:000078d0 00000052H .edata                  DATA
 0002:00007924 00000014H .idata$2                DATA
 0002:00007938 00000014H .idata$3                DATA
 0002:0000794c 00000104H .idata$4                DATA
 0002:00007a50 000004a8H .idata$6                DATA
 0003:00000000 00001260H .data                   DATA
 0003:00001260 000000d0H .data$r                 DATA
 0003:00001330 000000b4H .didat$5                DATA
 0003:00001400 00001ec0H .bss                    DATA
 0004:00000000 00000058H .rsrc$01                DATA
 0004:00000060 00000180H .rsrc$02                DATA

  Address         Publics by Value              Rva+Base       Lib:Object

 0000:00000000       __except_list              00000000     <absolute>
 0000:00000000       ___guard_fids_count        00000000     <absolute>
 0000:00000000       ___guard_flags             00000000     <absolute>
 0000:00000000       ___guard_fids_table        00000000     <absolute>
 0000:00000011       ___safe_se_handler_count   00000011     <absolute>
 0000:00000000       ___ImageBase               10000000     <linker-defined>
 0001:000000a0       ?New@?$Factory@VFunctionTemplate@v8@@@imp@Nan@@SA?AV?$Local@VFunctionTemplate@v8@@@v8@@P6AXABV?$FunctionCallbackInfo@VValue@v8@@@3@@ZV?$Local@VValue@v8@@@5@V?$Local@VSignature@v8@@@5@@Z 100010a0 f i binding.obj
 0001:000001c0       ??0Callback@Nan@@QAE@ABV?$Local@VFunction@v8@@@v8@@@Z 100011c0 f i binding.obj
 0001:00000290       ??0AsyncWorker@Nan@@QAE@PAVCallback@1@@Z 10001290 f i binding.obj
 0001:00000320       ??1AsyncWorker@Nan@@UAE@XZ 10001320 f i binding.obj
 0001:000003b0       ?WorkComplete@AsyncWorker@Nan@@UAEXXZ 100013b0 f i binding.obj
 0001:00000420       ?Destroy@AsyncWorker@Nan@@UAEXXZ 10001420 f i binding.obj
 0001:00000430       ?HandleOKCallback@AsyncWorker@Nan@@MAEXXZ 10001430 f i binding.obj
 0001:000004d0       ?HandleErrorCallback@AsyncWorker@Nan@@MAEXXZ 100014d0 f i binding.obj
 0001:000005c0       ??_GAsyncWorker@Nan@@UAEPAXI@Z 100015c0 f i binding.obj
 0001:000005c0       ??_EAsyncWorker@Nan@@UAEPAXI@Z 100015c0 f i * CIL library *:* CIL module *
 0001:000005e0       ?AsyncExecute@Nan@@YAXPAUuv_work_s@@@Z 100015e0 f i binding.obj
 0001:000005f0       ?AsyncExecuteComplete@Nan@@YAXPAUuv_work_s@@@Z 100015f0 f i binding.obj
 0001:00000610       ??1CompressWorker@nodesnappy@@UAE@XZ 10001610 f i binding.obj
 0001:00000680       ?Execute@CompressWorker@nodesnappy@@UAEXXZ 10001680 f i binding.obj
 0001:000006a0       ?HandleOKCallback@CompressWorker@nodesnappy@@UAEXXZ 100016a0 f i binding.obj
 0001:000007d0       ??_ECompressWorker@nodesnappy@@UAEPAXI@Z 100017d0 f i * CIL library *:* CIL module *
 0001:000007d0       ??_GCompressWorker@nodesnappy@@UAEPAXI@Z 100017d0 f i binding.obj
 0001:000007f0       ?Execute@IsValidCompressedWorker@nodesnappy@@UAEXXZ 100017f0 f i binding.obj
 0001:000008a0       ?HandleOKCallback@IsValidCompressedWorker@nodesnappy@@UAEXXZ 100018a0 f i binding.obj
 0001:00000980       ??_GIsValidCompressedWorker@nodesnappy@@UAEPAXI@Z 10001980 f i binding.obj
 0001:00000980       ??_EIsValidCompressedWorker@nodesnappy@@UAEPAXI@Z 10001980 f i * CIL library *:* CIL module *
 0001:000009e0       ??1UncompressWorker@nodesnappy@@UAE@XZ 100019e0 f i binding.obj
 0001:00000a50       ?Execute@UncompressWorker@nodesnappy@@UAEXXZ 10001a50 f i binding.obj
 0001:00000ab0       ?HandleOKCallback@UncompressWorker@nodesnappy@@UAEXXZ 10001ab0 f i binding.obj
 0001:00000c30       ??_GUncompressWorker@nodesnappy@@UAEPAXI@Z 10001c30 f i binding.obj
 0001:00000c30       ??_EUncompressWorker@nodesnappy@@UAEPAXI@Z 10001c30 f i * CIL library *:* CIL module *
 0001:00000c50       ?Compress@nodesnappy@@YAXABV?$FunctionCallbackInfo@VValue@v8@@@Nan@@@Z 10001c50 f   binding.obj
 0001:00000e30       ?CompressSync@nodesnappy@@YAXABV?$FunctionCallbackInfo@VValue@v8@@@Nan@@@Z 10001e30 f   binding.obj
 0001:00001040       ?IsValidCompressed@nodesnappy@@YAXABV?$FunctionCallbackInfo@VValue@v8@@@Nan@@@Z 10002040 f   binding.obj
 0001:00001140       ?IsValidCompressedSync@nodesnappy@@YAXABV?$FunctionCallbackInfo@VValue@v8@@@Nan@@@Z 10002140 f   binding.obj
 0001:00001260       ?Uncompress@nodesnappy@@YAXABV?$FunctionCallbackInfo@VValue@v8@@@Nan@@@Z 10002260 f   binding.obj
 0001:00001420       ?UncompressSync@nodesnappy@@YAXABV?$FunctionCallbackInfo@VValue@v8@@@Nan@@@Z 10002420 f   binding.obj
 0001:000016a0       _init                      100026a0 f   binding.obj
 0001:00001aa0       ?assign@?$basic_string@DU?$char_traits@D@std@@V?$allocator@D@2@@std@@QAEAAV12@PBDI@Z 10002aa0 f i binding.obj
 0001:00001ba0       ?assign@?$basic_string@DU?$char_traits@D@std@@V?$allocator@D@2@@std@@QAEAAV12@ABV12@II@Z 10002ba0 f i binding.obj
 0001:00001cb0       ?erase@?$basic_string@DU?$char_traits@D@std@@V?$allocator@D@2@@std@@QAEAAV12@II@Z 10002cb0 f i binding.obj
 0001:00001d50       ?_Copy@?$basic_string@DU?$char_traits@D@std@@V?$allocator@D@2@@std@@QAEXII@Z 10002d50 f i binding.obj
 0001:00001e60       ?Log2Floor@Bits@snappy@@SAHI@Z 10002e60 f i snappy:snappy.obj
 0001:00001ed0       ?Parse32WithLimit@Varint@snappy@@SAPBDPBD0PAI@Z 10002ed0 f i snappy:snappy.obj
 0001:00001f60       ?Encode32@Varint@snappy@@SAPADPADI@Z 10002f60 f i snappy:snappy.obj
 0001:00001ff0       ??1WorkingMemory@internal@snappy@@QAE@XZ 10002ff0 f i snappy:snappy.obj
 0001:00002000       ??_ESink@snappy@@UAEPAXI@Z 10003000 f i * CIL library *:* CIL module *
 0001:00002000       ??_GSink@snappy@@UAEPAXI@Z 10003000 f i snappy:snappy.obj
 0001:00002020       ??_ESource@snappy@@UAEPAXI@Z 10003020 f i * CIL library *:* CIL module *
 0001:00002020       ??_GSource@snappy@@UAEPAXI@Z 10003020 f i snappy:snappy.obj
 0001:00002040       ??_GByteArraySource@snappy@@UAEPAXI@Z 10003040 f i snappy:snappy.obj
 0001:00002040       ??_EByteArraySource@snappy@@UAEPAXI@Z 10003040 f i * CIL library *:* CIL module *
 0001:000020b0       ??_EUncheckedByteArraySink@snappy@@UAEPAXI@Z 100030b0 f i * CIL library *:* CIL module *
 0001:000020b0       ??_GUncheckedByteArraySink@snappy@@UAEPAXI@Z 100030b0 f i snappy:snappy.obj
 0001:00002160       ?IncrementalCopyFastPath@?A0xcb9c6d35@snappy@@YAXPBDPADJ@Z 10003160 f i snappy:snappy.obj
 0001:000023d0       ?CompressFragment@internal@snappy@@YAPADPBDIPADPAGH@Z 100033d0 f   snappy:snappy.obj
 0001:00002830       ??1SnappyDecompressor@snappy@@QAE@XZ 10003830 f i snappy:snappy.obj
 0001:00002840       ?ReadUncompressedLength@SnappyDecompressor@snappy@@QAE_NPAI@Z 10003840 f i snappy:snappy.obj
 0001:000028c0       ?RefillTag@SnappyDecompressor@snappy@@AAE_NXZ 100038c0 f   snappy:snappy.obj
 0001:00002a40       ?Compress@snappy@@YAIPAVSource@1@PAVSink@1@@Z 10003a40 f   snappy:snappy.obj
 0001:00002d30       ?AppendFromSelf@SnappyArrayWriter@snappy@@QAE_NII@Z 10003d30 f i snappy:snappy.obj
 0001:00002e00       ?RawUncompress@snappy@@YA_NPBDIPAD@Z 10003e00 f   snappy:snappy.obj
 0001:00002ea0       ?Uncompress@snappy@@YA_NPBDIPAV?$basic_string@DU?$char_traits@D@std@@V?$allocator@D@2@@std@@@Z 10003ea0 f   snappy:snappy.obj
 0001:00002f70       ?RawCompress@snappy@@YAXPBDIPADPAI@Z 10003f70 f   snappy:snappy.obj
 0001:00003050       ?Compress@snappy@@YAIPBDIPAV?$basic_string@DU?$char_traits@D@std@@V?$allocator@D@2@@std@@@Z 10004050 f   snappy:snappy.obj
 0001:00003100       ?append@?$basic_string@DU?$char_traits@D@std@@V?$allocator@D@2@@std@@QAEAAV12@ID@Z 10004100 f i snappy:snappy.obj
 0001:00003390       ??$DecompressAllTags@VSnappyArrayWriter@snappy@@@SnappyDecompressor@snappy@@QAEXPAVSnappyArrayWriter@1@@Z 10004390 f i snappy:snappy.obj
 0001:00003550       ??$DecompressAllTags@VSnappyDecompressionValidator@snappy@@@SnappyDecompressor@snappy@@QAEXPAVSnappyDecompressionValidator@1@@Z 10004550 f i snappy:snappy.obj
 0001:00003670       ??1Source@snappy@@UAE@XZ   10004670 f   snappy:snappy-sinksource.obj
 0001:00003680       ??1Sink@snappy@@UAE@XZ     10004680 f   snappy:snappy-sinksource.obj
 0001:00003690       ?GetAppendBuffer@Sink@snappy@@UAEPADIPAD@Z 10004690 f   snappy:snappy-sinksource.obj
 0001:000036a0       ??1ByteArraySource@snappy@@UAE@XZ 100046a0 f   snappy:snappy-sinksource.obj
 0001:000036f0       ?Available@ByteArraySource@snappy@@UBEIXZ 100046f0 f   snappy:snappy-sinksource.obj
 0001:00003700       ?Peek@ByteArraySource@snappy@@UAEPBDPAI@Z 10004700 f   snappy:snappy-sinksource.obj
 0001:00003710       ?Skip@ByteArraySource@snappy@@UAEXI@Z 10004710 f   snappy:snappy-sinksource.obj
 0001:00003720       ??1UncheckedByteArraySink@snappy@@UAE@XZ 10004720 f   snappy:snappy-sinksource.obj
 0001:00003770       ?Append@UncheckedByteArraySink@snappy@@UAEXPBDI@Z 10004770 f   snappy:snappy-sinksource.obj
 0001:000037b0       ?GetAppendBuffer@UncheckedByteArraySink@snappy@@UAEPADIPAD@Z 100047b0 f   snappy:snappy-sinksource.obj
 0001:000037b6       __imp_load_?Length@Buffer@node@@YAIV?$Local@VObject@v8@@@v8@@@Z 100047b6 f   node:node.exe
 0001:000037c0       __tailMerge_node_exe       100047c0 f i node:node.exe
 0001:000037d1       __imp_load_?Data@Buffer@node@@YAPADV?$Local@VObject@v8@@@v8@@@Z 100047d1 f   node:node.exe
 0001:000037db       __imp_load_?HasInstance@Buffer@node@@YA_NV?$Local@VObject@v8@@@v8@@@Z 100047db f   node:node.exe
 0001:000037e5       __imp_load_?New@Buffer@node@@YA?AV?$MaybeLocal@VObject@v8@@@v8@@PAVIsolate@4@I@Z 100047e5 f   node:node.exe
 0001:000037ef       __imp_load__node_module_register 100047ef f   node:node.exe
 0001:000037f9       __imp_load_?MakeCallback@node@@YA?AV?$Local@VValue@v8@@@v8@@PAVIsolate@3@V?$Local@VObject@v8@@@3@V?$Local@VFunction@v8@@@3@HPAV23@@Z 100047f9 f   node:node.exe
 0001:00003803       __imp_load__uv_default_loop 10004803 f   node:node.exe
 0001:0000380d       __imp_load_?Global@Context@v8@@QAE?AV?$Local@VObject@v8@@@2@XZ 1000480d f   node:node.exe
 0001:00003817       __imp_load_?ToLocalEmpty@V8@v8@@CAXXZ 10004817 f   node:node.exe
 0001:00003821       __imp_load_?FromJustIsNothing@V8@v8@@CAXXZ 10004821 f   node:node.exe
 0001:0000382b       __imp_load_?DisposeGlobal@V8@v8@@CAXPAPAVObject@internal@2@@Z 1000482b f   node:node.exe
 0001:00003835       __imp_load_?GlobalizeReference@V8@v8@@CAPAPAVObject@internal@2@PAVIsolate@42@PAPAV342@@Z 10004835 f   node:node.exe
 0001:0000383f       __imp_load_?Escape@EscapableHandleScope@v8@@AAEPAPAVObject@internal@2@PAPAV342@@Z 1000483f f   node:node.exe
 0001:00003849       __imp_load_??0EscapableHandleScope@v8@@QAE@PAVIsolate@1@@Z 10004849 f   node:node.exe
 0001:00003853       __imp_load_?BooleanValue@Value@v8@@QBE?AV?$Maybe@_N@2@V?$Local@VContext@v8@@@2@@Z 10004853 f   node:node.exe
 0001:0000385d       __imp_load_?GetFunction@FunctionTemplate@v8@@QAE?AV?$MaybeLocal@VFunction@v8@@@2@V?$Local@VContext@v8@@@2@@Z 1000485d f   node:node.exe
 0001:00003867       __imp_load_?New@FunctionTemplate@v8@@SA?AV?$Local@VFunctionTemplate@v8@@@2@PAVIsolate@2@P6AXABV?$FunctionCallbackInfo@VValue@v8@@@2@@ZV?$Local@VValue@v8@@@2@V?$Local@VSignature@v8@@@2@H@Z 10004867 f   node:node.exe
 0001:00003871       __imp_load_?Error@Exception@v8@@SA?AV?$Local@VValue@v8@@@2@V?$Local@VString@v8@@@2@@Z 10004871 f   node:node.exe
 0001:0000387b       __imp_load_??1Utf8Value@String@v8@@QAE@XZ 1000487b f   node:node.exe
 0001:00003885       __imp_load_??0Utf8Value@String@v8@@QAE@V?$Local@VValue@v8@@@2@@Z 10004885 f   node:node.exe
 0001:0000388f       __imp_load_?NewFromUtf8@String@v8@@SA?AV?$MaybeLocal@VString@v8@@@2@PAVIsolate@2@PBDW4NewStringType@2@H@Z 1000488f f   node:node.exe
 0001:00003899       __imp_load_?CreateHandle@HandleScope@v8@@KAPAPAVObject@internal@2@PAVIsolate@42@PAV342@@Z 10004899 f   node:node.exe
 0001:000038a3       __imp_load_?CreateHandle@HandleScope@v8@@CAPAPAVObject@internal@2@PAVHeapObject@42@PAV342@@Z 100048a3 f   node:node.exe
 0001:000038ad       __imp_load_??1HandleScope@v8@@QAE@XZ 100048ad f   node:node.exe
 0001:000038b7       __imp_load_??0HandleScope@v8@@QAE@PAVIsolate@1@@Z 100048b7 f   node:node.exe
 0001:000038c1       __imp_load_?SlowGetInternalField@Object@v8@@AAE?AV?$Local@VValue@v8@@@2@H@Z 100048c1 f   node:node.exe
 0001:000038cb       __imp_load_?New@Object@v8@@SA?AV?$Local@VObject@v8@@@2@PAVIsolate@2@@Z 100048cb f   node:node.exe
 0001:000038d5       __imp_load_?SetInternalField@Object@v8@@QAEXHV?$Local@VValue@v8@@@2@@Z 100048d5 f   node:node.exe
 0001:000038df       __imp_load_?Get@Object@v8@@QAE?AV?$MaybeLocal@VValue@v8@@@2@V?$Local@VContext@v8@@@2@V?$Local@VValue@v8@@@2@@Z 100048df f   node:node.exe
 0001:000038e9       __imp_load_?Get@Object@v8@@QAE?AV?$Local@VValue@v8@@@2@I@Z 100048e9 f   node:node.exe
 0001:000038f3       __imp_load_?Set@Object@v8@@QAE_NV?$Local@VValue@v8@@@2@0@Z 100048f3 f   node:node.exe
 0001:000038fd       __imp_load_?Set@Object@v8@@QAE?AV?$Maybe@_N@2@V?$Local@VContext@v8@@@2@IV?$Local@VValue@v8@@@2@@Z 100048fd f   node:node.exe
 0001:00003907       __imp_load_?SetInternalFieldCount@ObjectTemplate@v8@@QAEXH@Z 10004907 f   node:node.exe
 0001:00003911       __imp_load_?NewInstance@ObjectTemplate@v8@@QAE?AV?$MaybeLocal@VObject@v8@@@2@V?$Local@VContext@v8@@@2@@Z 10004911 f   node:node.exe
 0001:0000391b       __imp_load_?New@ObjectTemplate@v8@@SA?AV?$Local@VObjectTemplate@v8@@@2@PAVIsolate@2@V?$Local@VFunctionTemplate@v8@@@2@@Z 1000491b f   node:node.exe
 0001:00003925       __imp_load_?SetName@Function@v8@@QAEXV?$Local@VString@v8@@@2@@Z 10004925 f   node:node.exe
 0001:0000392f       __imp_load_?ThrowException@Isolate@v8@@QAE?AV?$Local@VValue@v8@@@2@V32@@Z 1000492f f   node:node.exe
 0001:00003939       __imp_load_?GetCurrentContext@Isolate@v8@@QAE?AV?$Local@VContext@v8@@@2@XZ 10004939 f   node:node.exe
 0001:00003943       __imp_load_?GetCurrent@Isolate@v8@@SAPAV12@XZ 10004943 f   node:node.exe
 0001:0000394d       __imp_load_?Value@External@v8@@QBEPAXXZ 1000494d f   node:node.exe
 0001:00003957       __imp_load_?New@External@v8@@SA?AV?$Local@VExternal@v8@@@2@PAVIsolate@2@PAX@Z 10004957 f   node:node.exe
 0001:00003961       __imp_load__uv_queue_work  10004961 f   node:node.exe
 0001:0000396b       __imp_load_?ToObject@Value@v8@@QBE?AV?$Local@VObject@v8@@@2@XZ 1000496b f   node:node.exe
 0001:00003975       __imp_load_?ToString@Value@v8@@QBE?AV?$Local@VString@v8@@@2@XZ 10004975 f   node:node.exe
 0001:0000397f       ??0bad_alloc@std@@QAE@ABV01@@Z 1000497f f i libcpmt:xthrow.obj
 0001:0000399a       ??0length_error@std@@QAE@ABV01@@Z 1000499a f i libcpmt:xthrow.obj
 0001:000039b5       ??0logic_error@std@@QAE@ABV01@@Z 100049b5 f i libcpmt:xthrow.obj
 0001:000039d0       ??0out_of_range@std@@QAE@ABV01@@Z 100049d0 f i libcpmt:xthrow.obj
 0001:000039eb       ??1bad_alloc@std@@UAE@XZ   100049eb f i libcpmt:xthrow.obj
 0001:000039f6       ??1out_of_range@std@@UAE@XZ 100049f6 f i libcpmt:xthrow.obj
 0001:000039f6       ??1length_error@std@@UAE@XZ 100049f6 f i libcpmt:xthrow.obj
 0001:000039fb       ??_Ebad_alloc@std@@UAEPAXI@Z 100049fb f i libcpmt:xthrow.obj
 0001:000039fb       ??_Gbad_alloc@std@@UAEPAXI@Z 100049fb f i libcpmt:xthrow.obj
 0001:00003a20       ??_Elogic_error@std@@UAEPAXI@Z 10004a20 f i libcpmt:xthrow.obj
 0001:00003a20       ??_Glength_error@std@@UAEPAXI@Z 10004a20 f i libcpmt:xthrow.obj
 0001:00003a20       ??_Gout_of_range@std@@UAEPAXI@Z 10004a20 f i libcpmt:xthrow.obj
 0001:00003a20       ??_Glogic_error@std@@UAEPAXI@Z 10004a20 f i libcpmt:xthrow.obj
 0001:00003a20       ??_Eout_of_range@std@@UAEPAXI@Z 10004a20 f i libcpmt:xthrow.obj
 0001:00003a20       ??_Elength_error@std@@UAEPAXI@Z 10004a20 f i libcpmt:xthrow.obj
 0001:00003a3f       ?_Xbad_alloc@std@@YAXXZ    10004a3f f   libcpmt:xthrow.obj
 0001:00003a70       ?_Xlength_error@std@@YAXPBD@Z 10004a70 f   libcpmt:xthrow.obj
 0001:00003a9e       ?_Xout_of_range@std@@YAXPBD@Z 10004a9e f   libcpmt:xthrow.obj
 0001:00003acc       ??_U@YAPAXI@Z              10004acc f   libcpmt:newaop.obj
 0001:00003ad5       @__security_check_cookie@4 10004ad5 f   LIBCMT:secchk.obj
 0001:00003af0       _memmove                   10004af0 f   LIBCMT:memmove.obj
 0001:00004134       __wassert                  10005134 f   LIBCMT:wassert.obj
 0001:000047d8       ___onexitinit              100057d8 f   LIBCMT:onexit.obj
 0001:00004807       __onexit                   10005807 f   LIBCMT:onexit.obj
 0001:00004903       _atexit                    10005903 f   LIBCMT:onexit.obj
 0001:00004918       ??_V@YAXPAX@Z              10005918 f   LIBCMT:delete2.obj
 0001:0000491d       __purecall                 1000591d f   LIBCMT:purevirt.obj
 0001:0000493f       ??3@YAXPAX@Z               1000593f f   LIBCMT:delete.obj
 0001:00004944       ??2@YAPAXI@Z               10005944 f   LIBCMT:new.obj
 0001:00004995       ??0_LocaleUpdate@@QAE@PAUlocaleinfo_struct@@@Z 10005995 f i LIBCMT:stricmp.obj
 0001:00004a1d       ___ascii_stricmp           10005a1d f   LIBCMT:stricmp.obj
 0001:00004a56       __stricmp                  10005a56 f   LIBCMT:stricmp.obj
 0001:00004a9d       __stricmp_l                10005a9d f   LIBCMT:stricmp.obj
 0001:00004b32       __CRT_INIT@12              10005b32 f   LIBCMT:dllcrt0.obj
 0001:00004ca4       __DllMainCRTStartup@12     10005ca4 f   LIBCMT:dllcrt0.obj
 0001:00004dd5       ___DllXcptFilter           10005dd5 f   LIBCMT:dllcrt0.obj
 0001:00004e00       _memcpy                    10005e00 f   LIBCMT:memcpy.obj
 0001:00005450       _strlen                    10006450 f   LIBCMT:strlen.obj
 0001:000054db       __CxxThrowException@8      100064db f   LIBCMT:throw.obj
 0001:0000553e       __EH_prolog3_catch         1000653e f   LIBCMT:ehprolg3.obj
 0001:00005644       ?_CallCatchBlock2@@YAPAXPAUEHRegistrationNode@@PBU_s_FuncInfo@@PAXHK@Z 10006644 f   LIBCMT:_trnsctrl_.obj
 0001:000056a4       ?_CallMemberFunction2@@YGXPAX00H@Z 100066a4 f   LIBCMT:_trnsctrl_.obj
 0001:000056a4       ?_CallMemberFunction1@@YGXPAX00@Z 100066a4 f   LIBCMT:_trnsctrl_.obj
 0001:000056a4       ?_CallMemberFunction0@@YGXPAX0@Z 100066a4 f   LIBCMT:_trnsctrl_.obj
 0001:000056ab       ?_CallSETranslator@@YAHPAUEHExceptionRecord@@PAUEHRegistrationNode@@PAX2PBU_s_FuncInfo@@H1@Z 100066ab f   LIBCMT:_trnsctrl_.obj
 0001:00005782       ?_GetRangeOfTrysToCheck@@YAPBU_s_TryBlockMapEntry@@PBU_s_FuncInfo@@HHPAI1@Z 10006782 f   LIBCMT:_trnsctrl_.obj
 0001:00005800       ?_JumpToContinuation@@YGXPAXPAUEHRegistrationNode@@@Z 10006800 f   LIBCMT:_trnsctrl_.obj
 0001:00005832       ?_UnwindNestedFrames@@YGXPAUEHRegistrationNode@@PAUEHExceptionRecord@@@Z 10006832 f   LIBCMT:_trnsctrl_.obj
 0001:00005887       __CreateFrameInfo          10006887 f   LIBCMT:_trnsctrl_.obj
 0001:000058b1       __FindAndUnlinkFrame       100068b1 f   LIBCMT:_trnsctrl_.obj
 0001:00005901       __IsExceptionObjectToBeDestroyed 10006901 f   LIBCMT:_trnsctrl_.obj
 0001:0000592a       ___CxxFrameHandler3        1000692a f   LIBCMT:_trnsctrl_.obj
 0001:00005960       ??1type_info@@UAE@XZ       10006960 f   LIBCMT:typinfo.obj
 0001:0000596e       ??8type_info@@QBE_NABV0@@Z 1000696e f   LIBCMT:typinfo.obj
 0001:0000598c       ??_Gtype_info@@UAEPAXI@Z   1000698c f i LIBCMT:typinfo.obj
 0001:0000598c       ??_Etype_info@@UAEPAXI@Z   1000698c f i LIBCMT:typinfo.obj
 0001:000059ab       __fpmath                   100069ab f   LIBCMT:fpinit.obj
 0001:000059c2       __cfltcvt_init             100069c2 f   LIBCMT:fpinit.obj
 0001:00005a22       ??0exception@std@@QAE@ABQBD@Z 10006a22 f   LIBCMT:stdexcpt.obj
 0001:00005a47       ??0exception@std@@QAE@ABQBDH@Z 10006a47 f   LIBCMT:stdexcpt.obj
 0001:00005a62       ??0exception@std@@QAE@ABV01@@Z 10006a62 f   LIBCMT:stdexcpt.obj
 0001:00005a85       ??1exception@std@@UAE@XZ   10006a85 f   LIBCMT:stdexcpt.obj
 0001:00005a90       ??4exception@std@@QAEAAV01@ABV01@@Z 10006a90 f   LIBCMT:stdexcpt.obj
 0001:00005ac3       ??_Gexception@std@@UAEPAXI@Z 10006ac3 f i LIBCMT:stdexcpt.obj
 0001:00005ac3       ??_Eexception@std@@UAEPAXI@Z 10006ac3 f i LIBCMT:stdexcpt.obj
 0001:00005ae8       ?_Copy_str@exception@std@@AAEXPBD@Z 10006ae8 f   LIBCMT:stdexcpt.obj
 0001:00005b26       ?_Tidy@exception@std@@AAEXXZ 10006b26 f   LIBCMT:stdexcpt.obj
 0001:00005b42       ?what@exception@std@@UBEPBDXZ 10006b42 f   LIBCMT:stdexcpt.obj
 0001:00005b4f       ___raise_securityfailure   10006b4f f   LIBCMT:gs_report.obj
 0001:00005b8c       ___report_gsfailure        10006b8c f   LIBCMT:gs_report.obj
 0001:00005c87       ___isa_available_init      10006c87 f   LIBCMT:cpu_disp.obj
 0001:00005e00       __call_reportfault         10006e00 f   LIBCMT:invarg.obj
 0001:00005f25       __initp_misc_invarg        10006f25 f   LIBCMT:invarg.obj
 0001:00005f32       __invalid_parameter        10006f32 f   LIBCMT:invarg.obj
 0001:00005f5d       __invalid_parameter_noinfo 10006f5d f   LIBCMT:invarg.obj
 0001:00005f6d       __invoke_watson            10006f6d f   LIBCMT:invarg.obj
 0001:00005f98       _memcpy_s                  10006f98 f   LIBCMT:memcpy_s.obj
 0001:00006017       _wcscat_s                  10007017 f   LIBCMT:wcscat_s.obj
 0001:00006083       _wcscpy_s                  10007083 f   LIBCMT:wcscpy_s.obj
 0001:000060df       _wcslen                    100070df f   LIBCMT:wcslen.obj
 0001:000060f8       _wcsncat_s                 100070f8 f   LIBCMT:wcsncat_s.obj
 0001:000061c6       ___crtCorExitProcess       100071c6 f   LIBCMT:crt0dat.obj
 0001:000061fa       ___crtExitProcess          100071fa f   LIBCMT:crt0dat.obj
 0001:00006210       ___freeCrtMemory           10007210 f   LIBCMT:crt0dat.obj
 0001:0000631d       __amsg_exit                1000731d f   LIBCMT:crt0dat.obj
 0001:00006339       __cexit                    10007339 f   LIBCMT:crt0dat.obj
 0001:00006348       __cinit                    10007348 f   LIBCMT:crt0dat.obj
 0001:000063cc       __exit                     100073cc f   LIBCMT:crt0dat.obj
 0001:000063e0       __init_pointers            100073e0 f   LIBCMT:crt0dat.obj
 0001:0000644e       __initterm_e               1000744e f   LIBCMT:crt0dat.obj
 0001:00006470       __lockexit                 10007470 f   LIBCMT:crt0dat.obj
 0001:00006479       __unlockexit               10007479 f   LIBCMT:crt0dat.obj
 0001:000065b1       __set_abort_behavior       100075b1 f   LIBCMT:abort.obj
 0001:000065d0       _abort                     100075d0 f   LIBCMT:abort.obj
 0001:00006613       __set_error_mode           10007613 f   LIBCMT:errmode.obj
 0001:00006653       __itow_s                   10007653 f   LIBCMT:xtows.obj
 0001:0000676f       ___initstdio               1000776f f   LIBCMT:_file.obj
 0001:000067e2       ___endstdio                100077e2 f   LIBCMT:_file.obj
 0001:00006809       ___iob_func                10007809 f   LIBCMT:_file.obj
 0001:0000680f       __lock_file                1000780f f   LIBCMT:_file.obj
 0001:0000684e       __lock_file2               1000784e f   LIBCMT:_file.obj
 0001:0000687e       __unlock_file              1000787e f   LIBCMT:_file.obj
 0001:000068b8       __unlock_file2             100078b8 f   LIBCMT:_file.obj
 0001:000068e5       __fflush_nolock            100078e5 f   LIBCMT:fflush.obj
 0001:0000692b       __flush                    1000792b f   LIBCMT:fflush.obj
 0001:0000698f       __flushall                 1000798f f   LIBCMT:fflush.obj
 0001:00006998       _fflush                    10007998 f   LIBCMT:fflush.obj
 0001:00006ad5       _setvbuf                   10007ad5 f   LIBCMT:setvbuf.obj
 0001:00006bdb       _fwprintf                  10007bdb f   LIBCMT:fwprintf.obj
 0001:00006c6f       __vswprintf_c_l            10007c6f f   LIBCMT:vswprnc.obj
 0001:00006c97       __vswprintf_helper         10007c97 f   LIBCMT:vswprnc.obj
 0001:00006d92       ___get_sigabrt             10007d92 f   LIBCMT:winsig.obj
 0001:00006d9f       __initp_misc_winsig        10007d9f f   LIBCMT:winsig.obj
 0001:00006dbb       _raise                     10007dbb f   LIBCMT:winsig.obj
 0001:00006fb0       ___crtMessageBoxW          10007fb0 f   LIBCMT:crtmboxw.obj
 0001:00007196       __FF_MSGBANNER             10008196 f   LIBCMT:crt0msg.obj
 0001:000071cf       __GET_RTERRMSG             100081cf f   LIBCMT:crt0msg.obj
 0001:000071f3       __NMSG_WRITE               100081f3 f   LIBCMT:crt0msg.obj
 0001:000073b0       __msize                    100083b0 f   LIBCMT:msize.obj
 0001:000073e1       __calloc_crt               100083e1 f   LIBCMT:crtheap.obj
 0001:00007429       __malloc_crt               10008429 f   LIBCMT:crtheap.obj
 0001:00007470       __realloc_crt              10008470 f   LIBCMT:crtheap.obj
 0001:000074c0       __SEH_prolog4              100084c0 f   LIBCMT:sehprolg4.obj
 0001:00007505       __SEH_epilog4              10008505 f   LIBCMT:sehprolg4.obj
 0001:00007520       __except_handler4          10008520 f   LIBCMT:chandler4.obj
 0001:000076b4       __initp_misc_purevirt      100086b4 f   LIBCMT:inithelp.obj
 0001:000076c1       _free                      100086c1 f   LIBCMT:free.obj
 0001:00007700       __CIsqrt                   10008700 f   LIBCMT:sqrt.obj
 0001:00007714       _sqrt                      10008714     LIBCMT:sqrt.obj
 0001:000077ba       __decomp                   100087ba f   LIBCMT:util.obj
 0001:0000788c       __set_exp                  1000888c f   LIBCMT:util.obj
 0001:000078bb       __handle_exc               100088bb f   LIBCMT:fpexcept.obj
 0001:00007a99       __raise_exc                10008a99 f   LIBCMT:fpexcept.obj
 0001:00007aba       __raise_exc_ex             10008aba f   LIBCMT:fpexcept.obj
 0001:00007d9f       __set_errno_from_matherr   10008d9f f   LIBCMT:fpexcept.obj
 0001:00007dcc       ___set_fpsr_sse2           10008dcc f   LIBCMT:fpctrl.obj
 0001:00007e42       __clrfp                    10008e42 f   LIBCMT:fpctrl.obj
 0001:00007e53       __ctrlfp                   10008e53 f   LIBCMT:fpctrl.obj
 0001:00007e7e       __set_statfp               10008e7e f   LIBCMT:fpctrl.obj
 0001:00007ed6       __statfp                   10008ed6 f   LIBCMT:fpctrl.obj
 0001:00007ee6       _malloc                    10008ee6 f   LIBCMT:malloc.obj
 0001:00007f78       __callnewh                 10008f78 f   LIBCMT:handler.obj
 0001:00007f9e       __initp_heap_handler       10008f9e f   LIBCMT:handler.obj
 0001:00007fab       ___addlocaleref            10008fab f   LIBCMT:localref.obj
 0001:00008040       ___freetlocinfo            10009040 f   LIBCMT:localref.obj
 0001:0000819a       ___removelocaleref         1000919a f   LIBCMT:localref.obj
 0001:0000823a       ___updatetlocinfo          1000923a f   LIBCMT:localref.obj
 0001:000082ba       __updatetlocinfoEx_nolock  100092ba f   LIBCMT:localref.obj
 0001:00008305       ___initmbctable            10009305 f   LIBCMT:mbctype.obj
 0001:000085bc       ___updatetmbcinfo          100095bc f   LIBCMT:mbctype.obj
 0001:00008662       __setmbcp                  10009662 f   LIBCMT:mbctype.obj
 0001:0000880a       __setmbcp_nolock           1000980a f   LIBCMT:mbctype.obj
 0001:000089f5       __tolower_l                100099f5 f   LIBCMT:tolower.obj
 0001:00008b38       _tolower                   10009b38 f   LIBCMT:tolower.obj
 0001:00008b64       __freefls@4                10009b64 f   LIBCMT:tidtable.obj
 0001:00008c99       __freeptd                  10009c99 f   LIBCMT:tidtable.obj
 0001:00008ccf       __getptd                   10009ccf f   LIBCMT:tidtable.obj
 0001:00008ce7       __getptd_noexit            10009ce7 f   LIBCMT:tidtable.obj
 0001:00008d56       __initptd                  10009d56 f   LIBCMT:tidtable.obj
 0001:00008e09       __mtinit                   10009e09 f   LIBCMT:tidtable.obj
 0001:00008e7f       __mtterm                   10009e7f f   LIBCMT:tidtable.obj
 0001:00008e9c       ___doserrno                10009e9c f   LIBCMT:dosmap.obj
 0001:00008eaf       __dosmaperr                10009eaf f   LIBCMT:dosmap.obj
 0001:00008ed0       __errno                    10009ed0 f   LIBCMT:dosmap.obj
 0001:00008ee3       __get_errno_from_oserr     10009ee3 f   LIBCMT:dosmap.obj
 0001:00008f24       __locterm                  10009f24 f   LIBCMT:wsetloca.obj
 0001:00008f76       __XcptFilter               10009f76 f   LIBCMT:winxfltr.obj
 0001:000090d1       ___CppXcptFilter           1000a0d1 f   LIBCMT:winxfltr.obj
 0001:000090ef       __heap_init                1000a0ef f   LIBCMT:heapinit.obj
 0001:00009104       __heap_term                1000a104 f   LIBCMT:heapinit.obj
 0001:0000910c       __ioinit                   1000a10c f   LIBCMT:ioinit.obj
 0001:000093c0       __ioterm                   1000a3c0 f   LIBCMT:ioinit.obj
 0001:00009412       __setargv                  1000a412 f   LIBCMT:stdargv.obj
 0001:00009641       __setenvp                  1000a641 f   LIBCMT:stdenvp.obj
 0001:00009722       ___security_init_cookie    1000a722 f   LIBCMT:gs_support.obj
 0001:000097be       _DllMain@12                1000a7be f   LIBCMT:dllmain.obj
 0001:000097c4       ___crtGetEnvironmentStringsA 1000a7c4 f   LIBCMT:a_env.obj
 0001:00009851       ___crtFlsAlloc             1000a851 f   LIBCMT:winapisupp.obj
 0001:0000986f       ___crtFlsFree              1000a86f f   LIBCMT:winapisupp.obj
 0001:0000988e       ___crtFlsGetValue          1000a88e f   LIBCMT:winapisupp.obj
 0001:000098ad       ___crtFlsSetValue          1000a8ad f   LIBCMT:winapisupp.obj
 0001:000098cf       ___crtInitializeCriticalSectionEx 1000a8cf f   LIBCMT:winapisupp.obj
 0001:000098fd       ___crtIsPackagedApp        1000a8fd f   LIBCMT:winapisupp.obj
 0001:0000993d       ___crtLoadWinApiPointers   1000a93d f   LIBCMT:winapisupp.obj
 0001:00009bc8       ___crtSleep                1000abc8 f   LIBCMT:winapisupp.obj
 0001:00009bd6       ___crtTerminateProcess     1000abd6 f   LIBCMT:winapisupp.obj
 0001:00009beb       ___crtUnhandledException   1000abeb f   LIBCMT:winapisupp.obj
 0001:00009c01       __RTC_Initialize           1000ac01 f   LIBCMT:initsect.obj
 0001:00009c21       __RTC_Terminate            1000ac21 f   LIBCMT:initsect.obj
 0001:00009c50       __CallSettingFrame@12      1000ac50 f   LIBCMT:lowhelpr.obj
 0001:00009c77       __NLG_Return               1000ac77     LIBCMT:lowhelpr.obj
 0001:00009c9c       ?_inconsistency@@YAXXZ     1000ac9c f   LIBCMT:hooks.obj
 0001:00009cd4       ?terminate@@YAXXZ          1000acd4 f   LIBCMT:hooks.obj
 0001:00009d08       ?unexpected@@YAXXZ         1000ad08 f   LIBCMT:hooks.obj
 0001:00009d1b       __initp_eh_hooks           1000ad1b f   LIBCMT:hooks.obj
 0001:00009d2c       ___DestructExceptionObject 1000ad2c f   LIBCMT:frame.obj
 0001:00009db7       ??0bad_exception@std@@QAE@ABV01@@Z 1000adb7 f i LIBCMT:frame.obj
 0001:00009dd2       ??1bad_exception@std@@UAE@XZ 1000add2 f i LIBCMT:frame.obj
 0001:00009ddd       ??_Gbad_exception@std@@UAEPAXI@Z 1000addd f i LIBCMT:frame.obj
 0001:00009ddd       ??_Ebad_exception@std@@UAEPAXI@Z 1000addd f i LIBCMT:frame.obj
 0001:0000a611       ___AdjustPointer           1000b611 f   LIBCMT:frame.obj
 0001:0000a636       ___BuildCatchObject        1000b636 f   LIBCMT:frame.obj
 0001:0000a6c4       ___BuildCatchObjectHelper  1000b6c4 f   LIBCMT:frame.obj
 0001:0000a886       ___FrameUnwindFilter       1000b886 f   LIBCMT:frame.obj
 0001:0000a8d4       ___FrameUnwindToState      1000b8d4 f   LIBCMT:frame.obj
 0001:0000a9ad       ___InternalCxxFrameHandler 1000b9ad f   LIBCMT:frame.obj
 0001:0000aa8e       ___TypeMatch               1000ba8e f   LIBCMT:frame.obj
 0001:0000ab00       _strcmp                    1000bb00 f   LIBCMT:strcmp.obj
 0001:0000ab8c       ?_Type_info_dtor@type_info@@CAXPAV1@@Z 1000bb8c f   LIBCMT:typname.obj
 0001:0000abfd       __cfltcvt                  1000bbfd f   LIBCMT:cvt.obj
 0001:0000ac1e       __cfltcvt_l                1000bc1e f   LIBCMT:cvt.obj
 0001:0000aca4       __cftoa_l                  1000bca4 f   LIBCMT:cvt.obj
 0001:0000b000       __cftoe                    1000c000 f   LIBCMT:cvt.obj
 0001:0000b16f       __cftoe_l                  1000c16f f   LIBCMT:cvt.obj
 0001:0000b329       __cftof_l                  1000c329 f   LIBCMT:cvt.obj
 0001:0000b3ea       __cftog_l                  1000c3ea f   LIBCMT:cvt.obj
 0001:0000b4e9       __cropzeros                1000c4e9 f   LIBCMT:cvt.obj
 0001:0000b4fa       __cropzeros_l              1000c4fa f   LIBCMT:cvt.obj
 0001:0000b57a       __fassign                  1000c57a f   LIBCMT:cvt.obj
 0001:0000b592       __fassign_l                1000c592 f   LIBCMT:cvt.obj
 0001:0000b5d4       __forcdecpt                1000c5d4 f   LIBCMT:cvt.obj
 0001:0000b5e5       __forcdecpt_l              1000c5e5 f   LIBCMT:cvt.obj
 0001:0000b659       __positive                 1000c659 f   LIBCMT:cvt.obj
 0001:0000b69b       __setdefaultprecision      1000c69b f   LIBCMT:fp8.obj
 0001:0000b6c2       __initp_misc_cfltcvt_tab   1000c6c2 f   LIBCMT:cmiscdat.obj
 0001:0000b6e1       _strcpy_s                  1000c6e1 f   LIBCMT:strcpy_s.obj
 0001:0000b736       __crt_debugger_hook        1000c736 f   LIBCMT:dbghook.obj
 0001:0000b740       _memset                    1000c740 f   LIBCMT:memset.obj
 0001:0000b7d0       __lock                     1000c7d0 f   LIBCMT:mlock.obj
 0001:0000b804       __mtdeletelocks            1000c804 f   LIBCMT:mlock.obj
 0001:0000b858       __mtinitlocknum            1000c858 f   LIBCMT:mlock.obj
 0001:0000b901       __mtinitlocks              1000c901 f   LIBCMT:mlock.obj
 0001:0000b93a       __unlock                   1000c93a f   LIBCMT:mlock.obj
 0001:0000b950       __FindPESection            1000c950 f   LIBCMT:pesect.obj
 0001:0000b9a0       __IsNonwritableInCurrentImage 1000c9a0 f   LIBCMT:pesect.obj
 0001:0000ba60       __ValidateImageBase        1000ca60 f   LIBCMT:pesect.obj
 0001:0000ba91       __initp_misc_rand_s        1000ca91 f   LIBCMT:rand_s.obj
 0001:0000ba9e       __ftbuf                    1000ca9e f   LIBCMT:_sftbuf.obj
 0001:0000bacf       __stbuf                    1000cacf f   LIBCMT:_sftbuf.obj
 0001:0000bb80       __aulldvrm                 1000cb80 f   LIBCMT:ulldvrm.obj
 0001:0000bc15       __fcloseall                1000cc15 f   LIBCMT:closeall.obj
 0001:0000bcb2       __fileno                   1000ccb2 f   LIBCMT:fileno.obj
 0001:0000bcd6       __commit                   1000ccd6 f   LIBCMT:commit.obj
 0001:0000bdbf       __write                    1000cdbf f   LIBCMT:write.obj
 0001:0000beae       __write_nolock             1000ceae f   LIBCMT:write.obj
 0001:0000c713       __freebuf                  1000d713 f   LIBCMT:_freebuf.obj
 0001:0000c743       __woutput_l                1000d743 f   LIBCMT:woutput.obj
 0001:0000d422       __flsbuf                   1000e422 f   LIBCMT:_flsbuf.obj
 0001:0000d571       _wcsncpy_s                 1000e571 f   LIBCMT:wcsncpy_s.obj
 0001:0000d62f       _realloc                   1000e62f f   LIBCMT:realloc.obj
 0001:0000d6da       __calloc_impl              1000e6da f   LIBCMT:calloc_impl.obj
 0001:0000d760       __local_unwind4            1000e760 f   LIBCMT:exsup4.obj
 0001:0000d836       __seh_longjmp_unwind4@4    1000e836 f   LIBCMT:exsup4.obj
 0001:0000d852       @_EH4_CallFilterFunc@8     1000e852 f   LIBCMT:exsup4.obj
 0001:0000d869       @_EH4_TransferToHandler@8  1000e869 f   LIBCMT:exsup4.obj
 0001:0000d882       @_EH4_GlobalUnwind2@8      1000e882 f   LIBCMT:exsup4.obj
 0001:0000d89b       @_EH4_LocalUnwind@16       1000e89b f   LIBCMT:exsup4.obj
 0001:0000d8b2       __freea                    1000e8b2 f i LIBCMT:a_loc.obj
 0001:0000d8d0       _GetTableIndexFromLocaleName 1000e8d0 f   LIBCMT:winapinls.obj
 0001:0000d91e       ___crtDownlevelLocaleNameToLCID 1000e91e f   LIBCMT:winapinls.obj
 0001:0000d948       ___crtLCMapStringEx        1000e948 f   LIBCMT:winapinls.obj
 0001:0000d994       ___wcsnicmp_ascii          1000e994 f   LIBCMT:winapinls.obj
 0001:0000da10       __trandisp1                1000ea10 f   LIBCMT:87disp.obj
 0001:0000da77       __trandisp2                1000ea77 f   LIBCMT:87disp.obj
 0001:0000db03       __rttospopde               1000eb03     LIBCMT:87disp.obj
 0001:0000db08       __rttospop                 1000eb08     LIBCMT:87disp.obj
 0001:0000db0a       __rtnospop                 1000eb0a     LIBCMT:87disp.obj
 0001:0000db0c       __rttosnpop                1000eb0c     LIBCMT:87disp.obj
 0001:0000db0d       __rtnospopde               1000eb0d     LIBCMT:87disp.obj
 0001:0000db14       __rtzeropop                1000eb14     LIBCMT:87disp.obj
 0001:0000db16       __rtzeronpop               1000eb16     LIBCMT:87disp.obj
 0001:0000db1b       __rtonepop                 1000eb1b     LIBCMT:87disp.obj
 0001:0000db1d       __rtonenpop                1000eb1d     LIBCMT:87disp.obj
 0001:0000db22       __tosnan1                  1000eb22     LIBCMT:87disp.obj
 0001:0000db4d       __nosnan2                  1000eb4d     LIBCMT:87disp.obj
 0001:0000db4f       __tosnan2                  1000eb4f     LIBCMT:87disp.obj
 0001:0000db77       __nan2                     1000eb77     LIBCMT:87disp.obj
 0001:0000dbb6       __rtindfpop                1000ebb6     LIBCMT:87disp.obj
 0001:0000dbb8       __rtindfnpop               1000ebb8     LIBCMT:87disp.obj
 0001:0000dbc9       __rttosnpopde              1000ebc9     LIBCMT:87disp.obj
 0001:0000dbd3       __rtchsifneg               1000ebd3     LIBCMT:87disp.obj
 0001:0000dbe0       __startTwoArgErrorHandling 1000ebe0 f   LIBCMT:genexcep.obj
 0001:0000dbf7       __startOneArgErrorHandling 1000ebf7 f   LIBCMT:genexcep.obj
 0001:0000dc40       __twoToTOS                 1000ec40 f   LIBCMT:common.obj
 0001:0000dc55       __load_CW                  1000ec55 f   LIBCMT:common.obj
 0001:0000dc6c       __convertTOStoQNaN         1000ec6c f   LIBCMT:common.obj
 0001:0000dc85       __fload_withFB             1000ec85 f   LIBCMT:common.obj
 0001:0000dcc8       __checkTOS_withFB          1000ecc8 f   LIBCMT:common.obj
 0001:0000dcde       __fast_exit                1000ecde f   LIBCMT:common.obj
 0001:0000dceb       __math_exit                1000eceb f   LIBCMT:common.obj
 0001:0000dd15       __check_overflow_exit      1000ed15 f   LIBCMT:common.obj
 0001:0000dd29       __check_range_exit         1000ed29 f   LIBCMT:common.obj
 0001:0000ddcc       __matherr                  1000edcc f   LIBCMT:matherr.obj
 0001:0000ddcf       ___free_lconv_mon          1000edcf f   LIBCMT:initmon.obj
 0001:0000decb       ___free_lconv_num          1000eecb f   LIBCMT:initnum.obj
 0001:0000df32       ___free_lc_time            1000ef32 f   LIBCMT:inittime.obj
 0001:0000e4b6       ___crtLCMapStringA         1000f4b6 f   LIBCMT:a_map.obj
 0001:0000e5f4       ___crtGetStringTypeA       1000f5f4 f   LIBCMT:a_str.obj
 0001:0000e634       __isctype_l                1000f634 f   LIBCMT:isctype.obj
 0001:0000e6e5       __isleadbyte_l             1000f6e5 f i LIBCMT:_wctype.obj
 0001:0000e71f       _isleadbyte                1000f71f f i LIBCMT:_wctype.obj
 0001:0000e78a       __ismbblead                1000f78a f   LIBCMT:ismbbyte.obj
 0001:0000e7a0       __global_unwind2           1000f7a0 f   LIBCMT:exsup.obj
 0001:0000e805       __local_unwind2            1000f805 f   LIBCMT:exsup.obj
 0001:0000e889       __abnormal_termination     1000f889 f   LIBCMT:exsup.obj
 0001:0000e8ac       __NLG_Notify1              1000f8ac f   LIBCMT:exsup.obj
 0001:0000e8b5       __NLG_Notify               1000f8b5 f   LIBCMT:exsup.obj
 0001:0000e8cc       __NLG_Dispatch             1000f8cc     LIBCMT:exsup.obj
 0001:0000e8cc       __NLG_Dispatch2            1000f8cc     LIBCMT:exsup.obj
 0001:0000e8d4       __NLG_Call                 1000f8d4 f   LIBCMT:exsup.obj
 0001:0000e8d6       __NLG_Return2              1000f8d6     LIBCMT:exsup.obj
 0001:0000e8d7       ?_ValidateExecute@@YAHP6GHXZ@Z 1000f8d7 f   LIBCMT:validate.obj
 0001:0000e8d7       ?_ValidateRead@@YAHPBXI@Z  1000f8d7 f   LIBCMT:validate.obj
 0001:0000e8d7       ?_ValidateWrite@@YAHPAXI@Z 1000f8d7 f   LIBCMT:validate.obj
 0001:0000e8e6       __isdigit_l                1000f8e6 f i LIBCMT:_ctype.obj
 0001:0000e938       _isdigit                   1000f938 f i LIBCMT:_ctype.obj
 0001:0000e970       _strrchr                   1000f970 f   LIBCMT:strrchr.obj
 0001:0000eaa7       __fptostr                  1000faa7 f   LIBCMT:_fptostr.obj
 0001:0000eb57       ___crt_atoflt_l            1000fb57 f   LIBCMT:atodbl.obj
 0001:0000ebfb       __atodbl_l                 1000fbfb f   LIBCMT:atodbl.obj
 0001:0000ec89       __atoflt_l                 1000fc89 f   LIBCMT:atodbl.obj
 0001:0000eca1       ___dtold                   1000fca1 f   LIBCMT:cfout.obj
 0001:0000ed69       __fltout2                  1000fd69 f   LIBCMT:cfout.obj
 0001:0000ee00       __alldvrm                  1000fe00 f   LIBCMT:lldvrm.obj
 0001:0000eee0       __aullshr                  1000fee0 f   LIBCMT:ullshr.obj
 0001:0000eeff       __controlfp_s              1000feff f   LIBCMT:contrlfp.obj
 0001:0000ef5c       __fptrap                   1000ff5c f   LIBCMT:crt0fp.obj
 0001:0000ef65       __VEC_memset               1000ff65 f   LIBCMT:p4_memset.obj
 0001:0000f02d       __isatty                   1001002d f   LIBCMT:isatty.obj
 0001:0000f081       __fclose_nolock            10010081 f   LIBCMT:fclose.obj
 0001:0000f0ed       _fclose                    100100ed f   LIBCMT:fclose.obj
 0001:0000f164       ___lock_fhandle            10010164 f   LIBCMT:osfinfo.obj
 0001:0000f1f2       __free_osfhnd              100101f2 f   LIBCMT:osfinfo.obj
 0001:0000f278       __get_osfhandle            10010278 f   LIBCMT:osfinfo.obj
 0001:0000f2df       __unlock_fhandle           100102df f   LIBCMT:osfinfo.obj
 0001:0000f305       __lseeki64                 10010305 f   LIBCMT:lseeki64.obj
 0001:0000f401       __lseeki64_nolock          10010401 f   LIBCMT:lseeki64.obj
 0001:0000f474       __mbtowc_l                 10010474 f   LIBCMT:mbtowc.obj
 0001:0000f569       _mbtowc                    10010569 f   LIBCMT:mbtowc.obj
 0001:0000f581       __putwch_nolock            10010581 f   LIBCMT:putwch.obj
 0001:0000f5d0       __chkstk                   100105d0 f   LIBCMT:chkstk.obj
 0001:0000f5d0       __alloca_probe             100105d0 f   LIBCMT:chkstk.obj
 0001:0000f5fb       __get_printf_count_output  100105fb f   LIBCMT:printf.obj
 0001:0000f610       __fputwc_nolock            10010610 f   LIBCMT:fputwc.obj
 0001:0000f796       __getbuf                   10010796 f   LIBCMT:_getbuf.obj
 0001:0000f7e0       __alloca_probe_16          100107e0 f   LIBCMT:alloca16.obj
 0001:0000f7f6       __alloca_probe_8           100107f6     LIBCMT:alloca16.obj
 0001:0000f80c       __87except                 1001080c f   LIBCMT:87except.obj
 0001:0000f915       __ld12tod                  10010915 f   LIBCMT:intrncvt.obj
 0001:0000fe87       __ld12tof                  10010e87 f   LIBCMT:intrncvt.obj
 0001:000103f9       ___strgtold12_l            100113f9 f   LIBCMT:strgtold.obj
 0001:00010ba1       _$I10_OUTPUT               10011ba1 f   LIBCMT:x10fout.obj
 0001:0001161e       __control87                1001261e f i LIBCMT:ieee87.obj
 0001:000119b7       __close                    100129b7 f   LIBCMT:close.obj
 0001:00011a92       __close_nolock             10012a92 f   LIBCMT:close.obj
 0001:00011b2c       ___termconout              10012b2c f   LIBCMT:initcon.obj
 0001:00011b43       ___initconout              10012b43 f   LIBCMT:initcon.obj
 0001:00011b62       __wctomb_s_l               10012b62 f   LIBCMT:wctomb.obj
 0001:00011c86       _wctomb_s                  10012c86 f   LIBCMT:wctomb.obj
 0001:00011ca1       __flswbuf                  10012ca1 f   LIBCMT:_flswbuf.obj
 0001:00011e03       ___mtold12                 10012e03 f   LIBCMT:mantold.obj
 0001:00011ff0       __allmul                   10012ff0 f   LIBCMT:llmul.obj
 0001:00012030       _RtlUnwind@16              10013030 f   kernel32:KERNEL32.dll
 0001:00012036       _IsProcessorFeaturePresent@4 10013036 f   kernel32:KERNEL32.dll
 0001:0001203c       ___delayLoadHelper2@8      1001303c f   DelayImp:delayhlp.obj
 0002:00000000       __imp__GetModuleHandleA@4  10014000     kernel32:KERNEL32.dll
 0002:00000004       __imp__GetStdHandle@4      10014004     kernel32:KERNEL32.dll
 0002:00000008       __imp__GetFileType@4       10014008     kernel32:KERNEL32.dll
 0002:0000000c       __imp__GetModuleFileNameW@12 1001400c     kernel32:KERNEL32.dll
 0002:00000010       __imp__GetModuleHandleExW@12 10014010     kernel32:KERNEL32.dll
 0002:00000014       __imp__WriteConsoleW@20    10014014     kernel32:KERNEL32.dll
 0002:00000018       __imp__EncodePointer@4     10014018     kernel32:KERNEL32.dll
 0002:0000001c       __imp__DecodePointer@4     1001401c     kernel32:KERNEL32.dll
 0002:00000020       __imp__GetCommandLineA@0   10014020     kernel32:KERNEL32.dll
 0002:00000024       __imp__GetCurrentThreadId@0 10014024     kernel32:KERNEL32.dll
 0002:00000028       __imp__RaiseException@16   10014028     kernel32:KERNEL32.dll
 0002:0000002c       __imp__RtlUnwind@16        1001402c     kernel32:KERNEL32.dll
 0002:00000030       __imp__IsDebuggerPresent@0 10014030     kernel32:KERNEL32.dll
 0002:00000034       __imp__IsProcessorFeaturePresent@4 10014034     kernel32:KERNEL32.dll
 0002:00000038       __imp__GetLastError@0      10014038     kernel32:KERNEL32.dll
 0002:0000003c       __imp__ExitProcess@4       1001403c     kernel32:KERNEL32.dll
 0002:00000040       __imp__GetProcAddress@8    10014040     kernel32:KERNEL32.dll
 0002:00000044       __imp__MultiByteToWideChar@24 10014044     kernel32:KERNEL32.dll
 0002:00000048       __imp__WideCharToMultiByte@32 10014048     kernel32:KERNEL32.dll
 0002:0000004c       __imp__EnterCriticalSection@4 1001404c     kernel32:KERNEL32.dll
 0002:00000050       __imp__LeaveCriticalSection@4 10014050     kernel32:KERNEL32.dll
 0002:00000054       __imp__OutputDebugStringW@4 10014054     kernel32:KERNEL32.dll
 0002:00000058       __imp__LoadLibraryExW@12   10014058     kernel32:KERNEL32.dll
 0002:0000005c       __imp__WriteFile@20        1001405c     kernel32:KERNEL32.dll
 0002:00000060       __imp__HeapSize@12         10014060     kernel32:KERNEL32.dll
 0002:00000064       __imp__HeapFree@12         10014064     kernel32:KERNEL32.dll
 0002:00000068       __imp__HeapAlloc@12        10014068     kernel32:KERNEL32.dll
 0002:0000006c       __imp__IsValidCodePage@4   1001406c     kernel32:KERNEL32.dll
 0002:00000070       __imp__GetACP@0            10014070     kernel32:KERNEL32.dll
 0002:00000074       __imp__GetOEMCP@0          10014074     kernel32:KERNEL32.dll
 0002:00000078       __imp__GetCPInfo@8         10014078     kernel32:KERNEL32.dll
 0002:0000007c       __imp__SetLastError@4      1001407c     kernel32:KERNEL32.dll
 0002:00000080       __imp__GetProcessHeap@0    10014080     kernel32:KERNEL32.dll
 0002:00000084       __imp__DeleteCriticalSection@4 10014084     kernel32:KERNEL32.dll
 0002:00000088       __imp__GetStartupInfoW@4   10014088     kernel32:KERNEL32.dll
 0002:0000008c       __imp__GetModuleFileNameA@12 1001408c     kernel32:KERNEL32.dll
 0002:00000090       __imp__QueryPerformanceCounter@4 10014090     kernel32:KERNEL32.dll
 0002:00000094       __imp__GetCurrentProcessId@0 10014094     kernel32:KERNEL32.dll
 0002:00000098       __imp__GetSystemTimeAsFileTime@4 10014098     kernel32:KERNEL32.dll
 0002:0000009c       __imp__GetEnvironmentStringsW@0 1001409c     kernel32:KERNEL32.dll
 0002:000000a0       __imp__FreeEnvironmentStringsW@4 100140a0     kernel32:KERNEL32.dll
 0002:000000a4       __imp__UnhandledExceptionFilter@4 100140a4     kernel32:KERNEL32.dll
 0002:000000a8       __imp__SetUnhandledExceptionFilter@4 100140a8     kernel32:KERNEL32.dll
 0002:000000ac       __imp__InitializeCriticalSectionAndSpinCount@8 100140ac     kernel32:KERNEL32.dll
 0002:000000b0       __imp__Sleep@4             100140b0     kernel32:KERNEL32.dll
 0002:000000b4       __imp__GetCurrentProcess@0 100140b4     kernel32:KERNEL32.dll
 0002:000000b8       __imp__TerminateProcess@8  100140b8     kernel32:KERNEL32.dll
 0002:000000bc       __imp__TlsAlloc@0          100140bc     kernel32:KERNEL32.dll
 0002:000000c0       __imp__TlsGetValue@4       100140c0     kernel32:KERNEL32.dll
 0002:000000c4       __imp__TlsSetValue@8       100140c4     kernel32:KERNEL32.dll
 0002:000000c8       __imp__TlsFree@4           100140c8     kernel32:KERNEL32.dll
 0002:000000cc       __imp__GetModuleHandleW@4  100140cc     kernel32:KERNEL32.dll
 0002:000000d0       __imp__FreeLibrary@4       100140d0     kernel32:KERNEL32.dll
 0002:000000d4       __imp__FlushFileBuffers@4  100140d4     kernel32:KERNEL32.dll
 0002:000000d8       __imp__GetConsoleCP@0      100140d8     kernel32:KERNEL32.dll
 0002:000000dc       __imp__GetConsoleMode@8    100140dc     kernel32:KERNEL32.dll
 0002:000000e0       __imp__HeapReAlloc@16      100140e0     kernel32:KERNEL32.dll
 0002:000000e4       __imp__LCMapStringW@24     100140e4     kernel32:KERNEL32.dll
 0002:000000e8       __imp__GetStringTypeW@16   100140e8     kernel32:KERNEL32.dll
 0002:000000ec       __imp__SetStdHandle@8      100140ec     kernel32:KERNEL32.dll
 0002:000000f0       __imp__SetFilePointerEx@20 100140f0     kernel32:KERNEL32.dll
 0002:000000f4       __imp__CloseHandle@4       100140f4     kernel32:KERNEL32.dll
 0002:000000f8       __imp__CreateFileW@28      100140f8     kernel32:KERNEL32.dll
 0002:000000fc       __imp__LoadLibraryExA@12   100140fc     kernel32:KERNEL32.dll
 0002:00000100       \177KERNEL32_NULL_THUNK_DATA 10014100     kernel32:KERNEL32.dll
 0002:00000104       ___xc_a                    10014104     LIBCMT:crt0init.obj
 0002:00000108       __register_binding_        10014108     binding.obj
 0002:0000010c       ___xc_z                    1001410c     LIBCMT:crt0init.obj
 0002:00000110       ___xi_a                    10014110     LIBCMT:crt0init.obj
 0002:00000124       ___xi_z                    10014124     LIBCMT:crt0init.obj
 0002:00000128       ___xp_a                    10014128     LIBCMT:crt0init.obj
 0002:00000138       ___xp_z                    10014138     LIBCMT:crt0init.obj
 0002:0000013c       ___xt_a                    1001413c     LIBCMT:crt0init.obj
 0002:00000140       ___xt_z                    10014140     LIBCMT:crt0init.obj
 0002:00000190       __sz_node_exe              10014190     node:node.exe
 0002:0000019c       ??_C@_0BG@DHPCNBJB@address?5not?5available?$AA@ 1001419c     libcpmt:syserror.obj
 0002:000001b4       ??_C@_0BC@DFIBIBIL@already?5connected?$AA@ 100141b4     libcpmt:syserror.obj
 0002:000001c8       ??_C@_0BH@CAKOHOMI@argument?5list?5too?5long?$AA@ 100141c8     libcpmt:syserror.obj
 0002:000001e0       ??_C@_0BH@CGIMPKIM@argument?5out?5of?5domain?$AA@ 100141e0     libcpmt:syserror.obj
 0002:000001f8       ??_C@_0M@KGHGGJGL@bad?5address?$AA@ 100141f8     libcpmt:syserror.obj
 0002:00000204       ??_C@_0BE@MPJPGCEO@bad?5file?5descriptor?$AA@ 10014204     libcpmt:syserror.obj
 0002:00000218       ??_C@_0M@PMMIEFCP@bad?5message?$AA@ 10014218     libcpmt:syserror.obj
 0002:00000224       ??_C@_0M@KPHOFDBE@broken?5pipe?$AA@ 10014224     libcpmt:syserror.obj
 0002:00000230       ??_C@_0BD@MGNDDEGM@connection?5aborted?$AA@ 10014230     libcpmt:syserror.obj
 0002:00000244       ??_C@_0BP@KAIHPOGN@connection?5already?5in?5progress?$AA@ 10014244     libcpmt:syserror.obj
 0002:00000264       ??_C@_0BD@PJLIIJEL@connection?5refused?$AA@ 10014264     libcpmt:syserror.obj
 0002:00000278       ??_C@_0BB@IECNJNOI@connection?5reset?$AA@ 10014278     libcpmt:syserror.obj
 0002:0000028c       ??_C@_0BN@KDMIFEIP@destination?5address?5required?$AA@ 1001428c     libcpmt:syserror.obj
 0002:000002ac       ??_C@_0BI@BNCLIGPB@executable?5format?5error?$AA@ 100142ac     libcpmt:syserror.obj
 0002:000002c4       ??_C@_0P@DNAJLBJK@file?5too?5large?$AA@ 100142c4     libcpmt:syserror.obj
 0002:000002d4       ??_C@_0BB@DHFDFGDM@host?5unreachable?$AA@ 100142d4     libcpmt:syserror.obj
 0002:000002e8       ??_C@_0BD@JPHBMONG@identifier?5removed?$AA@ 100142e8     libcpmt:syserror.obj
 0002:000002fc       ??_C@_0BG@CDNPAGJK@illegal?5byte?5sequence?$AA@ 100142fc     libcpmt:syserror.obj
 0002:00000314       ??_C@_0CD@BNPLBMNA@inappropriate?5io?5control?5operati@ 10014314     libcpmt:syserror.obj
 0002:00000338       ??_C@_0N@OHAFKDEK@invalid?5seek?$AA@ 10014338     libcpmt:syserror.obj
 0002:00000348       ??_C@_0P@FLLDBIDK@is?5a?5directory?$AA@ 10014348     libcpmt:syserror.obj
 0002:00000358       ??_C@_0N@IFLPBIOP@message?5size?$AA@ 10014358     libcpmt:syserror.obj
 0002:00000368       ??_C@_0N@KIIEAAIO@network?5down?$AA@ 10014368     libcpmt:syserror.obj
 0002:00000378       ??_C@_0O@FNPDBHEE@network?5reset?$AA@ 10014378     libcpmt:syserror.obj
 0002:00000388       ??_C@_0BE@IFNCKGE@network?5unreachable?$AA@ 10014388     libcpmt:syserror.obj
 0002:0000039c       ??_C@_0BA@PFFCAOFK@no?5buffer?5space?$AA@ 1001439c     libcpmt:syserror.obj
 0002:000003ac       ??_C@_0BB@IEPBLJHK@no?5child?5process?$AA@ 100143ac     libcpmt:syserror.obj
 0002:000003c0       ??_C@_07PLECNNKG@no?5link?$AA@ 100143c0     libcpmt:syserror.obj
 0002:000003c8       ??_C@_0BF@PBGGPKKE@no?5message?5available?$AA@ 100143c8     libcpmt:syserror.obj
 0002:000003e0       ??_C@_0L@EDOLMPAK@no?5message?$AA@ 100143e0     libcpmt:syserror.obj
 0002:000003ec       ??_C@_0BD@EAMBFIDF@no?5protocol?5option?$AA@ 100143ec     libcpmt:syserror.obj
 0002:00000400       ??_C@_0BE@MKFDAFMP@no?5stream?5resources?$AA@ 10014400     libcpmt:syserror.obj
 0002:00000414       ??_C@_0BK@IMCPHCBI@no?5such?5device?5or?5address?$AA@ 10014414     libcpmt:syserror.obj
 0002:00000430       ??_C@_0BA@ENLPPKBN@no?5such?5process?$AA@ 10014430     libcpmt:syserror.obj
 0002:00000440       ??_C@_0BA@DOCPFFJG@not?5a?5directory?$AA@ 10014440     libcpmt:syserror.obj
 0002:00000450       ??_C@_0N@POEIPGGF@not?5a?5socket?$AA@ 10014450     libcpmt:syserror.obj
 0002:00000460       ??_C@_0N@LGAPMMPI@not?5a?5stream?$AA@ 10014460     libcpmt:syserror.obj
 0002:00000470       ??_C@_0O@GLMIBBEG@not?5connected?$AA@ 10014470     libcpmt:syserror.obj
 0002:00000480       ??_C@_0O@NHEDABJP@not?5supported?$AA@ 10014480     libcpmt:syserror.obj
 0002:00000490       ??_C@_0BG@KDKHOPCO@operation?5in?5progress?$AA@ 10014490     libcpmt:syserror.obj
 0002:000004a8       ??_C@_0BI@OHIEJAAB@operation?5not?5permitted?$AA@ 100144a8     libcpmt:syserror.obj
 0002:000004c0       ??_C@_0BI@LNEGIFLN@operation?5not?5supported?$AA@ 100144c0     libcpmt:syserror.obj
 0002:000004d8       ??_C@_0BG@OEMDKMEE@operation?5would?5block?$AA@ 100144d8     libcpmt:syserror.obj
 0002:000004f0       ??_C@_0L@BLPOFLNJ@owner?5dead?$AA@ 100144f0     libcpmt:syserror.obj
 0002:000004fc       ??_C@_0P@FNPOCJBE@protocol?5error?$AA@ 100144fc     libcpmt:syserror.obj
 0002:0000050c       ??_C@_0BH@JPPPLHJB@protocol?5not?5supported?$AA@ 1001450c     libcpmt:syserror.obj
 0002:00000524       ??_C@_0BG@EICBIHDP@read?5only?5file?5system?$AA@ 10014524     libcpmt:syserror.obj
 0002:0000053c       ??_C@_0BO@BJBOMOEJ@resource?5deadlock?5would?5occur?$AA@ 1001453c     libcpmt:syserror.obj
 0002:0000055c       ??_C@_0BE@GOIPJJHG@result?5out?5of?5range?$AA@ 1001455c     libcpmt:syserror.obj
 0002:00000570       ??_C@_0BG@MPLKFPAE@state?5not?5recoverable?$AA@ 10014570     libcpmt:syserror.obj
 0002:00000588       ??_C@_0P@DIIFGFCG@stream?5timeout?$AA@ 10014588     libcpmt:syserror.obj
 0002:00000598       ??_C@_0P@IPFDMIFL@text?5file?5busy?$AA@ 10014598     libcpmt:syserror.obj
 0002:000005a8       ??_C@_09KJPPMAOI@timed?5out?$AA@ 100145a8     libcpmt:syserror.obj
 0002:000005b4       ??_C@_0BO@HACHBEKI@too?5many?5files?5open?5in?5system?$AA@ 100145b4     libcpmt:syserror.obj
 0002:000005d4       ??_C@_0P@HCOMKFCC@too?5many?5links?$AA@ 100145d4     libcpmt:syserror.obj
 0002:000005e4       ??_C@_0BO@EFGOJEF@too?5many?5symbolic?5link?5levels?$AA@ 100145e4     libcpmt:syserror.obj
 0002:00000604       ??_C@_0BA@KGKGOOJA@value?5too?5large?$AA@ 10014604     libcpmt:syserror.obj
 0002:00000614       ??_C@_0BE@MIEJDDNH@wrong?5protocol?5type?$AA@ 10014614     libcpmt:syserror.obj
 0002:00000af8       ??_C@_0BC@CIJDGCDI@permission?5denied?$AA@ 10014af8     libcpmt:syserror.obj
 0002:00000b0c       ??_C@_0M@MIDIAGJP@file?5exists?$AA@ 10014b0c     libcpmt:syserror.obj
 0002:00000b18       ??_C@_0P@FDINDDOK@no?5such?5device?$AA@ 10014b18     libcpmt:syserror.obj
 0002:00000b28       ??_C@_0BC@EJHOMAAK@filename?5too?5long?$AA@ 10014b28     libcpmt:syserror.obj
 0002:00000b3c       ??_C@_0BI@NGCEHDD@device?5or?5resource?5busy?$AA@ 10014b3c     libcpmt:syserror.obj
 0002:00000b54       ??_C@_08GLNPIFBN@io?5error?$AA@ 10014b54     libcpmt:syserror.obj
 0002:00000b60       ??_C@_0BE@JIDOCPHM@directory?5not?5empty?$AA@ 10014b60     libcpmt:syserror.obj
 0002:00000b74       ??_C@_0BB@FCMFBGOM@invalid?5argument?$AA@ 10014b74     libcpmt:syserror.obj
 0002:00000b88       ??_C@_0BD@IJDJKDEA@no?5space?5on?5device?$AA@ 10014b88     libcpmt:syserror.obj
 0002:00000b9c       ??_C@_0BK@NDOCBPGE@no?5such?5file?5or?5directory?$AA@ 10014b9c     libcpmt:syserror.obj
 0002:00000bb8       ??_C@_0BH@KEFGLDAF@function?5not?5supported?$AA@ 10014bb8     libcpmt:syserror.obj
 0002:00000bd0       ??_C@_0BC@NJECKMKE@no?5lock?5available?$AA@ 10014bd0     libcpmt:syserror.obj
 0002:00000be4       ??_C@_0BC@ENOOLCNF@not?5enough?5memory?$AA@ 10014be4     libcpmt:syserror.obj
 0002:00000bf8       ??_C@_0BP@LKNGHENJ@resource?5unavailable?5try?5again?$AA@ 10014bf8     libcpmt:syserror.obj
 0002:00000c18       ??_C@_0BC@PPHBOELF@cross?5device?5link?$AA@ 10014c18     libcpmt:syserror.obj
 0002:00000c2c       ??_C@_0BD@MOLBPMEA@operation?5canceled?$AA@ 10014c2c     libcpmt:syserror.obj
 0002:00000c40       ??_C@_0BE@GHAFMPAH@too?5many?5files?5open?$AA@ 10014c40     libcpmt:syserror.obj
 0002:00000c54       ??_C@_0BC@FNODOBAE@permission_denied?$AA@ 10014c54     libcpmt:syserror.obj
 0002:00000c68       ??_C@_0P@LNDJPBFK@address_in_use?$AA@ 10014c68     libcpmt:syserror.obj
 0002:00000c78       ??_C@_0BG@IPMGOJF@address_not_available?$AA@ 10014c78     libcpmt:syserror.obj
 0002:00000c90       ??_C@_0BN@LCBDHODA@address_family_not_supported?$AA@ 10014c90     libcpmt:syserror.obj
 0002:00000cb0       ??_C@_0BP@FOJJHMCC@connection_already_in_progress?$AA@ 10014cb0     libcpmt:syserror.obj
 0002:00000cd0       ??_C@_0BE@DLHHIBGN@bad_file_descriptor?$AA@ 10014cd0     libcpmt:syserror.obj
 0002:00000ce4       ??_C@_0BD@OJMJDIGI@connection_aborted?$AA@ 10014ce4     libcpmt:syserror.obj
 0002:00000cf8       ??_C@_0BD@NGKCIFEP@connection_refused?$AA@ 10014cf8     libcpmt:syserror.obj
 0002:00000d0c       ??_C@_0BB@JOANDNCK@connection_reset?$AA@ 10014d0c     libcpmt:syserror.obj
 0002:00000d20       ??_C@_0BN@JLJNLKLK@destination_address_required?$AA@ 10014d20     libcpmt:syserror.obj
 0002:00000d40       ??_C@_0M@IJGMGFGP@bad_address?$AA@ 10014d40     libcpmt:syserror.obj
 0002:00000d4c       ??_C@_0BB@KKNHPPIN@host_unreachable?$AA@ 10014d4c     libcpmt:syserror.obj
 0002:00000d60       ??_C@_0BG@DJGBJIIK@operation_in_progress?$AA@ 10014d60     libcpmt:syserror.obj
 0002:00000d78       ??_C@_0M@EGEKIIMP@interrupted?$AA@ 10014d78     libcpmt:syserror.obj
 0002:00000d84       ??_C@_0BB@FFIHMIPJ@invalid_argument?$AA@ 10014d84     libcpmt:syserror.obj
 0002:00000d98       ??_C@_0BC@FIFLCHLO@already_connected?$AA@ 10014d98     libcpmt:syserror.obj
 0002:00000dac       ??_C@_0BE@GJJJJDDA@too_many_files_open?$AA@ 10014dac     libcpmt:syserror.obj
 0002:00000dc0       ??_C@_0N@HPMLKHPL@message_size?$AA@ 10014dc0     libcpmt:syserror.obj
 0002:00000dd0       ??_C@_0BC@LEEIKBAL@filename_too_long?$AA@ 10014dd0     libcpmt:syserror.obj
 0002:00000de4       ??_C@_0N@FCPALPJK@network_down?$AA@ 10014de4     libcpmt:syserror.obj
 0002:00000df4       ??_C@_0O@EHNDLHIG@network_reset?$AA@ 10014df4     libcpmt:syserror.obj
 0002:00000e04       ??_C@_0BE@JFNJIDNF@network_unreachable?$AA@ 10014e04     libcpmt:syserror.obj
 0002:00000e18       ??_C@_0BA@FDIJKJCL@no_buffer_space?$AA@ 10014e18     libcpmt:syserror.obj
 0002:00000e28       ??_C@_0BD@JHIHCGKP@no_protocol_option?$AA@ 10014e28     libcpmt:syserror.obj
 0002:00000e3c       ??_C@_0O@GBCLHHD@not_connected?$AA@ 10014e3c     libcpmt:syserror.obj
 0002:00000e4c       ??_C@_0N@IMHKKLEM@not_a_socket?$AA@ 10014e4c     libcpmt:syserror.obj
 0002:00000e5c       ??_C@_0BI@ICEIDKLJ@operation_not_supported?$AA@ 10014e5c     libcpmt:syserror.obj
 0002:00000e74       ??_C@_0BH@KAPBAIJF@protocol_not_supported?$AA@ 10014e74     libcpmt:syserror.obj
 0002:00000e8c       ??_C@_0BE@GAOJJFPC@wrong_protocol_type?$AA@ 10014e8c     libcpmt:syserror.obj
 0002:00000ea0       ??_C@_09NCHNLHPG@timed_out?$AA@ 10014ea0     libcpmt:syserror.obj
 0002:00000eac       ??_C@_0BG@GDGHKFDH@operation_would_block?$AA@ 10014eac     libcpmt:syserror.obj
 0002:00000ec4       ??_C@_0BN@LKKBCCDB@address?5family?5not?5supported?$AA@ 10014ec4     libcpmt:syserror.obj
 0002:00000ee4       ??_C@_0P@LDMLAFHI@address?5in?5use?$AA@ 10014ee4     libcpmt:syserror.obj
 0002:00000ef8       ??_7bad_alloc@std@@6B@     10014ef8     libcpmt:xthrow.obj
 0002:00000f00       ??_C@_0P@GHFPNOJB@bad?5allocation?$AA@ 10014f00     libcpmt:xthrow.obj
 0002:00000f14       ??_7logic_error@std@@6B@   10014f14     libcpmt:xthrow.obj
 0002:00000f20       ??_7length_error@std@@6B@  10014f20     libcpmt:xthrow.obj
 0002:00000f2c       ??_7out_of_range@std@@6B@  10014f2c     libcpmt:xthrow.obj
 0002:00000f34       ??_C@_17LGKOMLJ@?$AA?4?$AA?4?$AA?4?$AA?$AA@ 10014f34     LIBCMT:wassert.obj
 0002:00000f3c       ??_C@_13LBAGMAIH@?$AA?6?$AA?$AA@ 10014f3c     LIBCMT:wassert.obj
 0002:00000f40       ??_C@_15IABLJNFO@?$AA?6?$AA?6?$AA?$AA@ 10014f40     LIBCMT:wassert.obj
 0002:00000f48       ??_C@_1CE@OJBNHDMO@?$AAA?$AAs?$AAs?$AAe?$AAr?$AAt?$AAi?$AAo?$AAn?$AA?5?$AAf?$AAa?$AAi?$AAl?$AAe?$AAd?$AA?$CB?$AA?$AA@ 10014f48     LIBCMT:wassert.obj
 0002:00000f6c       ??_C@_1BE@PHKBBGE@?$AAP?$AAr?$AAo?$AAg?$AAr?$AAa?$AAm?$AA?3?$AA?5?$AA?$AA@ 10014f6c     LIBCMT:wassert.obj
 0002:00000f80       ??_C@_1CO@EAEJAADC@?$AA?$DM?$AAp?$AAr?$AAo?$AAg?$AAr?$AAa?$AAm?$AA?5?$AAn?$AAa?$AAm?$AAe?$AA?5?$AAu?$AAn?$AAk?$AAn?$AAo?$AAw?$AAn?$AA?$DO?$AA?$AA@ 10014f80     LIBCMT:wassert.obj
 0002:00000fb0       ??_C@_1O@HEMHKNDC@?$AAF?$AAi?$AAl?$AAe?$AA?3?$AA?5?$AA?$AA@ 10014fb0     LIBCMT:wassert.obj
 0002:00000fc0       ??_C@_1O@KCAFKHJE@?$AAL?$AAi?$AAn?$AAe?$AA?3?$AA?5?$AA?$AA@ 10014fc0     LIBCMT:wassert.obj
 0002:00000fd0       ??_C@_1BK@PEDCIPMA@?$AAE?$AAx?$AAp?$AAr?$AAe?$AAs?$AAs?$AAi?$AAo?$AAn?$AA?3?$AA?5?$AA?$AA@ 10014fd0     LIBCMT:wassert.obj
 0002:00000ff0       ??_C@_1OA@EGMLFBHJ@?$AAF?$AAo?$AAr?$AA?5?$AAi?$AAn?$AAf?$AAo?$AAr?$AAm?$AAa?$AAt?$AAi?$AAo?$AAn?$AA?5?$AAo?$AAn?$AA?5?$AAh?$AAo?$AAw?$AA?5?$AAy?$AAo?$AAu?$AAr?$AA?5?$AAp?$AAr?$AAo?$AAg@ 10014ff0     LIBCMT:wassert.obj
 0002:000010d0       ??_C@_1HK@POCJMFGK@?$AA?$CI?$AAP?$AAr?$AAe?$AAs?$AAs?$AA?5?$AAR?$AAe?$AAt?$AAr?$AAy?$AA?5?$AAt?$AAo?$AA?5?$AAd?$AAe?$AAb?$AAu?$AAg?$AA?5?$AAt?$AAh?$AAe?$AA?5?$AAa?$AAp?$AAp?$AAl?$AAi?$AAc@ 100150d0     LIBCMT:wassert.obj
 0002:00001150       ??_C@_1EK@MBDPDCGA@?$AAM?$AAi?$AAc?$AAr?$AAo?$AAs?$AAo?$AAf?$AAt?$AA?5?$AAV?$AAi?$AAs?$AAu?$AAa?$AAl?$AA?5?$AAC?$AA?$CL?$AA?$CL?$AA?5?$AAR?$AAu?$AAn?$AAt?$AAi?$AAm?$AAe?$AA?5?$AAL?$AAi?$AAb@ 10015150     LIBCMT:wassert.obj
 0002:0000119c       __pRawDllMain              1001519c     LIBCMT:dllcrt0.obj
 0002:0000119c       __pDefaultRawDllMain       1001519c     LIBCMT:dllcrt0.obj
 0002:000011c4       ??_7type_info@@6B@         100151c4     LIBCMT:typinfo.obj
 0002:000011c8       __FPinit                   100151c8     LIBCMT:fpinit.obj
 0002:000011d0       ??_7exception@std@@6B@     100151d0     LIBCMT:stdexcpt.obj
 0002:000011d8       ??_C@_0BC@EOODALEL@Unknown?5exception?$AA@ 100151d8     LIBCMT:stdexcpt.obj
 0002:000011f4       ??_C@_1BI@BGOHAHKC@?$AAm?$AAs?$AAc?$AAo?$AAr?$AAe?$AAe?$AA?4?$AAd?$AAl?$AAl?$AA?$AA@ 100151f4     LIBCMT:crt0dat.obj
 0002:0000120c       ??_C@_0P@MIGLKIOC@CorExitProcess?$AA@ 1001520c     LIBCMT:crt0dat.obj
 0002:0000121c       ??_C@_1BG@GOEBHBDC@?$AAU?$AAS?$AAE?$AAR?$AA3?$AA2?$AA?4?$AAD?$AAL?$AAL?$AA?$AA@ 1001521c     LIBCMT:crtmboxw.obj
 0002:00001234       ??_C@_0M@DLDCCGNP@MessageBoxW?$AA@ 10015234     LIBCMT:crtmboxw.obj
 0002:00001240       ??_C@_0BA@HNOPNCHB@GetActiveWindow?$AA@ 10015240     LIBCMT:crtmboxw.obj
 0002:00001250       ??_C@_0BD@HHGDFDBJ@GetLastActivePopup?$AA@ 10015250     LIBCMT:crtmboxw.obj
 0002:00001264       ??_C@_0BK@DEKFELLI@GetUserObjectInformationW?$AA@ 10015264     LIBCMT:crtmboxw.obj
 0002:00001280       ??_C@_0BI@DFKBFLJE@GetProcessWindowStation?$AA@ 10015280     LIBCMT:crtmboxw.obj
 0002:00001350       ??_C@_1FK@PGACCAFB@?$AAR?$AA6?$AA0?$AA0?$AA2?$AA?$AN?$AA?6?$AA?9?$AA?5?$AAf?$AAl?$AAo?$AAa?$AAt?$AAi?$AAn?$AAg?$AA?5?$AAp?$AAo?$AAi?$AAn?$AAt?$AA?5?$AAs?$AAu?$AAp?$AAp?$AAo?$AAr?$AAt?$AA?5@ 10015350     LIBCMT:crt0msg.obj
 0002:000013b0       ??_C@_1FE@LLNEDJMD@?$AAR?$AA6?$AA0?$AA0?$AA8?$AA?$AN?$AA?6?$AA?9?$AA?5?$AAn?$AAo?$AAt?$AA?5?$AAe?$AAn?$AAo?$AAu?$AAg?$AAh?$AA?5?$AAs?$AAp?$AAa?$AAc?$AAe?$AA?5?$AAf?$AAo?$AAr?$AA?5?$AAa?$AAr@ 100153b0     LIBCMT:crt0msg.obj
 0002:00001408       ??_C@_1FI@HONFMGBI@?$AAR?$AA6?$AA0?$AA0?$AA9?$AA?$AN?$AA?6?$AA?9?$AA?5?$AAn?$AAo?$AAt?$AA?5?$AAe?$AAn?$AAo?$AAu?$AAg?$AAh?$AA?5?$AAs?$AAp?$AAa?$AAc?$AAe?$AA?5?$AAf?$AAo?$AAr?$AA?5?$AAe?$AAn@ 10015408     LIBCMT:crt0msg.obj
 0002:00001460       ??_C@_1EG@BEHAGFJD@?$AAR?$AA6?$AA0?$AA1?$AA0?$AA?$AN?$AA?6?$AA?9?$AA?5?$AAa?$AAb?$AAo?$AAr?$AAt?$AA?$CI?$AA?$CJ?$AA?5?$AAh?$AAa?$AAs?$AA?5?$AAb?$AAe?$AAe?$AAn?$AA?5?$AAc?$AAa?$AAl?$AAl?$AAe?$AAd@ 10015460     LIBCMT:crt0msg.obj
 0002:000014a8       ??_C@_1FI@LOGNIKDM@?$AAR?$AA6?$AA0?$AA1?$AA6?$AA?$AN?$AA?6?$AA?9?$AA?5?$AAn?$AAo?$AAt?$AA?5?$AAe?$AAn?$AAo?$AAu?$AAg?$AAh?$AA?5?$AAs?$AAp?$AAa?$AAc?$AAe?$AA?5?$AAf?$AAo?$AAr?$AA?5?$AAt?$AAh@ 100154a8     LIBCMT:crt0msg.obj
 0002:00001500       ??_C@_1FK@BEOGODMC@?$AAR?$AA6?$AA0?$AA1?$AA7?$AA?$AN?$AA?6?$AA?9?$AA?5?$AAu?$AAn?$AAe?$AAx?$AAp?$AAe?$AAc?$AAt?$AAe?$AAd?$AA?5?$AAm?$AAu?$AAl?$AAt?$AAi?$AAt?$AAh?$AAr?$AAe?$AAa?$AAd?$AA?5@ 10015500     LIBCMT:crt0msg.obj
 0002:00001560       ??_C@_1EC@JIBHAOPH@?$AAR?$AA6?$AA0?$AA1?$AA8?$AA?$AN?$AA?6?$AA?9?$AA?5?$AAu?$AAn?$AAe?$AAx?$AAp?$AAe?$AAc?$AAt?$AAe?$AAd?$AA?5?$AAh?$AAe?$AAa?$AAp?$AA?5?$AAe?$AAr?$AAr?$AAo?$AAr?$AA?$AN?$AA?6@ 10015560     LIBCMT:crt0msg.obj
 0002:000015a8       ??_C@_1FC@ECHBIFBC@?$AAR?$AA6?$AA0?$AA1?$AA9?$AA?$AN?$AA?6?$AA?9?$AA?5?$AAu?$AAn?$AAa?$AAb?$AAl?$AAe?$AA?5?$AAt?$AAo?$AA?5?$AAo?$AAp?$AAe?$AAn?$AA?5?$AAc?$AAo?$AAn?$AAs?$AAo?$AAl?$AAe?$AA?5@ 100155a8     LIBCMT:crt0msg.obj
 0002:00001600       ??_C@_1GK@FHCKBEFA@?$AAR?$AA6?$AA0?$AA2?$AA4?$AA?$AN?$AA?6?$AA?9?$AA?5?$AAn?$AAo?$AAt?$AA?5?$AAe?$AAn?$AAo?$AAu?$AAg?$AAh?$AA?5?$AAs?$AAp?$AAa?$AAc?$AAe?$AA?5?$AAf?$AAo?$AAr?$AA?5?$AA_?$AAo@ 10015600     LIBCMT:crt0msg.obj
 0002:00001670       ??_C@_1EM@MAADIHMB@?$AAR?$AA6?$AA0?$AA2?$AA5?$AA?$AN?$AA?6?$AA?9?$AA?5?$AAp?$AAu?$AAr?$AAe?$AA?5?$AAv?$AAi?$AAr?$AAt?$AAu?$AAa?$AAl?$AA?5?$AAf?$AAu?$AAn?$AAc?$AAt?$AAi?$AAo?$AAn?$AA?5?$AAc@ 10015670     LIBCMT:crt0msg.obj
 0002:000016c0       ??_C@_1GK@MCAAGJMO@?$AAR?$AA6?$AA0?$AA2?$AA6?$AA?$AN?$AA?6?$AA?9?$AA?5?$AAn?$AAo?$AAt?$AA?5?$AAe?$AAn?$AAo?$AAu?$AAg?$AAh?$AA?5?$AAs?$AAp?$AAa?$AAc?$AAe?$AA?5?$AAf?$AAo?$AAr?$AA?5?$AAs?$AAt@ 100156c0     LIBCMT:crt0msg.obj
 0002:00001730       ??_C@_1GK@MFGOKLAG@?$AAR?$AA6?$AA0?$AA2?$AA7?$AA?$AN?$AA?6?$AA?9?$AA?5?$AAn?$AAo?$AAt?$AA?5?$AAe?$AAn?$AAo?$AAu?$AAg?$AAh?$AA?5?$AAs?$AAp?$AAa?$AAc?$AAe?$AA?5?$AAf?$AAo?$AAr?$AA?5?$AAl?$AAo@ 10015730     LIBCMT:crt0msg.obj
 0002:000017a0       ??_C@_1EK@HHFLMAOL@?$AAR?$AA6?$AA0?$AA2?$AA8?$AA?$AN?$AA?6?$AA?9?$AA?5?$AAu?$AAn?$AAa?$AAb?$AAl?$AAe?$AA?5?$AAt?$AAo?$AA?5?$AAi?$AAn?$AAi?$AAt?$AAi?$AAa?$AAl?$AAi?$AAz?$AAe?$AA?5?$AAh?$AAe@ 100157a0     LIBCMT:crt0msg.obj
 0002:000017ec       ??_C@_1DO@BMFCDCD@?$AAR?$AA6?$AA0?$AA3?$AA0?$AA?$AN?$AA?6?$AA?9?$AA?5?$AAC?$AAR?$AAT?$AA?5?$AAn?$AAo?$AAt?$AA?5?$AAi?$AAn?$AAi?$AAt?$AAi?$AAa?$AAl?$AAi?$AAz?$AAe?$AAd?$AA?$AN?$AA?6?$AA?$AA@ 100157ec     LIBCMT:crt0msg.obj
 0002:00001830       ??_C@_1MG@ENCOOIDF@?$AAR?$AA6?$AA0?$AA3?$AA1?$AA?$AN?$AA?6?$AA?9?$AA?5?$AAA?$AAt?$AAt?$AAe?$AAm?$AAp?$AAt?$AA?5?$AAt?$AAo?$AA?5?$AAi?$AAn?$AAi?$AAt?$AAi?$AAa?$AAl?$AAi?$AAz?$AAe?$AA?5?$AAt@ 10015830     LIBCMT:crt0msg.obj
 0002:000018f8       ??_C@_1GG@GOPILAJP@?$AAR?$AA6?$AA0?$AA3?$AA2?$AA?$AN?$AA?6?$AA?9?$AA?5?$AAn?$AAo?$AAt?$AA?5?$AAe?$AAn?$AAo?$AAu?$AAg?$AAh?$AA?5?$AAs?$AAp?$AAa?$AAc?$AAe?$AA?5?$AAf?$AAo?$AAr?$AA?5?$AAl?$AAo@ 100158f8     LIBCMT:crt0msg.obj
 0002:00001960       ??_C@_1BOO@KGEDBGAJ@?$AAR?$AA6?$AA0?$AA3?$AA3?$AA?$AN?$AA?6?$AA?9?$AA?5?$AAA?$AAt?$AAt?$AAe?$AAm?$AAp?$AAt?$AA?5?$AAt?$AAo?$AA?5?$AAu?$AAs?$AAe?$AA?5?$AAM?$AAS?$AAI?$AAL?$AA?5?$AAc?$AAo?$AAd@ 10015960     LIBCMT:crt0msg.obj
 0002:00001b50       ??_C@_1GG@MKFPEKFO@?$AAR?$AA6?$AA0?$AA3?$AA4?$AA?$AN?$AA?6?$AA?9?$AA?5?$AAi?$AAn?$AAc?$AAo?$AAn?$AAs?$AAi?$AAs?$AAt?$AAe?$AAn?$AAt?$AA?5?$AAo?$AAn?$AAe?$AAx?$AAi?$AAt?$AA?5?$AAb?$AAe?$AAg@ 10015b50     LIBCMT:crt0msg.obj
 0002:00001bb8       ??_C@_1BO@BFCDCGC@?$AAD?$AAO?$AAM?$AAA?$AAI?$AAN?$AA?5?$AAe?$AAr?$AAr?$AAo?$AAr?$AA?$AN?$AA?6?$AA?$AA@ 10015bb8     LIBCMT:crt0msg.obj
 0002:00001bd8       ??_C@_1BK@KMOMNAAI@?$AAS?$AAI?$AAN?$AAG?$AA?5?$AAe?$AAr?$AAr?$AAo?$AAr?$AA?$AN?$AA?6?$AA?$AA@ 10015bd8     LIBCMT:crt0msg.obj
 0002:00001bf4       ??_C@_1BM@JBBEPPHI@?$AAT?$AAL?$AAO?$AAS?$AAS?$AA?5?$AAe?$AAr?$AAr?$AAo?$AAr?$AA?$AN?$AA?6?$AA?$AA@ 10015bf4     LIBCMT:crt0msg.obj
 0002:00001c10       ??_C@_15JNBOKNOG@?$AA?$AN?$AA?6?$AA?$AA@ 10015c10     LIBCMT:crt0msg.obj
 0002:00001c18       ??_C@_1BO@BKOMIGKJ@?$AAr?$AAu?$AAn?$AAt?$AAi?$AAm?$AAe?$AA?5?$AAe?$AAr?$AAr?$AAo?$AAr?$AA?5?$AA?$AA@ 10015c18     LIBCMT:crt0msg.obj
 0002:00001c38       ??_C@_1DE@JNGNBFGO@?$AAR?$AAu?$AAn?$AAt?$AAi?$AAm?$AAe?$AA?5?$AAE?$AAr?$AAr?$AAo?$AAr?$AA?$CB?$AA?6?$AA?6?$AAP?$AAr?$AAo?$AAg?$AAr?$AAa?$AAm?$AA?3?$AA?5?$AA?$AA@ 10015c38     LIBCMT:crt0msg.obj
 0002:00001c6c       ??_C@_04FJHINJAO@tanh?$AA@ 10015c6c     LIBCMT:fpexcept.obj
 0002:00001c74       ??_C@_04FIHNOPOL@asin?$AA@ 10015c74     LIBCMT:fpexcept.obj
 0002:00001c7c       ??_C@_04PDIFKINK@acos?$AA@ 10015c7c     LIBCMT:fpexcept.obj
 0002:00001c84       ??_C@_04MLLJIGOK@atan?$AA@ 10015c84     LIBCMT:fpexcept.obj
 0002:00001c8c       ??_C@_05KNGEOGJB@atan2?$AA@ 10015c8c     LIBCMT:fpexcept.obj
 0002:00001c94       ??_C@_04EIAKFFMI@sqrt?$AA@ 10015c94     LIBCMT:fpexcept.obj
 0002:00001c9c       ??_C@_03BLEJJJBH@sin?$AA@  10015c9c     LIBCMT:fpexcept.obj
 0002:00001ca0       ??_C@_03LALBNOCG@cos?$AA@  10015ca0     LIBCMT:fpexcept.obj
 0002:00001ca4       ??_C@_03IIINPABG@tan?$AA@  10015ca4     LIBCMT:fpexcept.obj
 0002:00001ca8       ??_C@_04GFPJNGEK@ceil?$AA@ 10015ca8     LIBCMT:fpexcept.obj
 0002:00001cb0       ??_C@_05PBJFFIGL@floor?$AA@ 10015cb0     LIBCMT:fpexcept.obj
 0002:00001cb8       ??_C@_04ODHECPBC@fabs?$AA@ 10015cb8     LIBCMT:fpexcept.obj
 0002:00001cc0       ??_C@_04EHEDPDJG@modf?$AA@ 10015cc0     LIBCMT:fpexcept.obj
 0002:00001cc8       ??_C@_05CEJMAHNP@ldexp?$AA@ 10015cc8     LIBCMT:fpexcept.obj
 0002:00001cd0       ??_C@_05KBKMEMPO@_cabs?$AA@ 10015cd0     LIBCMT:fpexcept.obj
 0002:00001cd8       ??_C@_06MEIMCGCF@_hypot?$AA@ 10015cd8     LIBCMT:fpexcept.obj
 0002:00001ce0       ??_C@_04KEPJIHGP@fmod?$AA@ 10015ce0     LIBCMT:fpexcept.obj
 0002:00001ce8       ??_C@_05GKKHEGJL@frexp?$AA@ 10015ce8     LIBCMT:fpexcept.obj
 0002:00001cf0       ??_C@_03MJLDFKDL@_y0?$AA@  10015cf0     LIBCMT:fpexcept.obj
 0002:00001cf4       ??_C@_03NAKIGLHK@_y1?$AA@  10015cf4     LIBCMT:fpexcept.obj
 0002:00001cf8       ??_C@_03ONILCKOB@_yn?$AA@  10015cf8     LIBCMT:fpexcept.obj
 0002:00001cfc       ??_C@_05JGDBENOH@_logb?$AA@ 10015cfc     LIBCMT:fpexcept.obj
 0002:00001d04       ??_C@_0L@KDOEJCKC@_nextafter?$AA@ 10015d04     LIBCMT:fpexcept.obj
 0002:00001d10       ??_C@_03KHJOGHMM@exp?$AA@  10015d10     LIBCMT:fpexcept.obj
 0002:00001d14       ??_C@_03JGHBODFD@pow?$AA@  10015d14     LIBCMT:fpexcept.obj
 0002:00001d18       ??_C@_03MGHMBJCF@log?$AA@  10015d18     LIBCMT:fpexcept.obj
 0002:00001d1c       ??_C@_05HGHHAHAP@log10?$AA@ 10015d1c     LIBCMT:fpexcept.obj
 0002:00001d24       ??_C@_04COOMCNPB@sinh?$AA@ 10015d24     LIBCMT:fpexcept.obj
 0002:00001d2c       ??_C@_04HPJJNFIM@cosh?$AA@ 10015d2c     LIBCMT:fpexcept.obj
 0002:00001d44       ??_C@_1M@HPNHIDJI@?$AAj?$AAa?$AA?9?$AAJ?$AAP?$AA?$AA@ 10015d44     LIBCMT:mbctype.obj
 0002:00001d50       ??_C@_1M@BIBDDEMK@?$AAz?$AAh?$AA?9?$AAC?$AAN?$AA?$AA@ 10015d50     LIBCMT:mbctype.obj
 0002:00001d5c       ??_C@_1M@JLOOOEGK@?$AAk?$AAo?$AA?9?$AAK?$AAR?$AA?$AA@ 10015d5c     LIBCMT:mbctype.obj
 0002:00001d68       ??_C@_1M@CLNBBOPM@?$AAz?$AAh?$AA?9?$AAT?$AAW?$AA?$AA@ 10015d68     LIBCMT:mbctype.obj
 0002:00001d74       ??_C@_03KOEHGMDN@Sun?$AA@  10015d74     LIBCMT:nlsdata.obj
 0002:00001d78       ??_C@_03PDAGKDH@Mon?$AA@   10015d78     LIBCMT:nlsdata.obj
 0002:00001d7c       ??_C@_03NAGEINEP@Tue?$AA@  10015d7c     LIBCMT:nlsdata.obj
 0002:00001d80       ??_C@_03MHOMLAJA@Wed?$AA@  10015d80     LIBCMT:nlsdata.obj
 0002:00001d84       ??_C@_03IOFIKPDN@Thu?$AA@  10015d84     LIBCMT:nlsdata.obj
 0002:00001d88       ??_C@_03IDIOELNC@Fri?$AA@  10015d88     LIBCMT:nlsdata.obj
 0002:00001d8c       ??_C@_03FEFJNEK@Sat?$AA@   10015d8c     LIBCMT:nlsdata.obj
 0002:00001d90       ??_C@_06OOPIFAJ@Sunday?$AA@ 10015d90     LIBCMT:nlsdata.obj
 0002:00001d98       ??_C@_06JLEDEDGH@Monday?$AA@ 10015d98     LIBCMT:nlsdata.obj
 0002:00001da0       ??_C@_07BAAGCFCM@Tuesday?$AA@ 10015da0     LIBCMT:nlsdata.obj
 0002:00001da8       ??_C@_09DLIGFAKA@Wednesday?$AA@ 10015da8     LIBCMT:nlsdata.obj
 0002:00001db4       ??_C@_08HACCIKIA@Thursday?$AA@ 10015db4     LIBCMT:nlsdata.obj
 0002:00001dc0       ??_C@_06JECMNKMI@Friday?$AA@ 10015dc0     LIBCMT:nlsdata.obj
 0002:00001dc8       ??_C@_08INBOOONO@Saturday?$AA@ 10015dc8     LIBCMT:nlsdata.obj
 0002:00001dd4       ??_C@_03JIHJHPIE@Jan?$AA@  10015dd4     LIBCMT:nlsdata.obj
 0002:00001dd8       ??_C@_03HJBDCHOM@Feb?$AA@  10015dd8     LIBCMT:nlsdata.obj
 0002:00001ddc       ??_C@_03ODNJBKGA@Mar?$AA@  10015ddc     LIBCMT:nlsdata.obj
 0002:00001de0       ??_C@_03LEOLGMJP@Apr?$AA@  10015de0     LIBCMT:nlsdata.obj
 0002:00001de4       ??_C@_03CNMDKL@May?$AA@    10015de4     LIBCMT:nlsdata.obj
 0002:00001de8       ??_C@_03IDFGHECI@Jun?$AA@  10015de8     LIBCMT:nlsdata.obj
 0002:00001dec       ??_C@_03LBGABGKK@Jul?$AA@  10015dec     LIBCMT:nlsdata.obj
 0002:00001df0       ??_C@_03IFJFEIGA@Aug?$AA@  10015df0     LIBCMT:nlsdata.obj
 0002:00001df4       ??_C@_03GGCAPAJC@Sep?$AA@  10015df4     LIBCMT:nlsdata.obj
 0002:00001df8       ??_C@_03BMAOKBAD@Oct?$AA@  10015df8     LIBCMT:nlsdata.obj
 0002:00001dfc       ??_C@_03JPJOFNIA@Nov?$AA@  10015dfc     LIBCMT:nlsdata.obj
 0002:00001e00       ??_C@_03MKABNOCG@Dec?$AA@  10015e00     LIBCMT:nlsdata.obj
 0002:00001e04       ??_C@_07CGJPFGJA@January?$AA@ 10015e04     LIBCMT:nlsdata.obj
 0002:00001e0c       ??_C@_08GNJGEPFN@February?$AA@ 10015e0c     LIBCMT:nlsdata.obj
 0002:00001e18       ??_C@_05HPCKOFNC@March?$AA@ 10015e18     LIBCMT:nlsdata.obj
 0002:00001e20       ??_C@_05DMJDNLEJ@April?$AA@ 10015e20     LIBCMT:nlsdata.obj
 0002:00001e28       ??_C@_04CNLMGBGM@June?$AA@ 10015e28     LIBCMT:nlsdata.obj
 0002:00001e30       ??_C@_04MIEPOIFP@July?$AA@ 10015e30     LIBCMT:nlsdata.obj
 0002:00001e38       ??_C@_06LBBHFDDG@August?$AA@ 10015e38     LIBCMT:nlsdata.obj
 0002:00001e40       ??_C@_09BHHEALKD@September?$AA@ 10015e40     LIBCMT:nlsdata.obj
 0002:00001e4c       ??_C@_07JJNFCEND@October?$AA@ 10015e4c     LIBCMT:nlsdata.obj
 0002:00001e54       ??_C@_08HCHEGEOA@November?$AA@ 10015e54     LIBCMT:nlsdata.obj
 0002:00001e60       ??_C@_08EDHMEBNP@December?$AA@ 10015e60     LIBCMT:nlsdata.obj
 0002:00001e6c       ??_C@_02DEDBPAFC@AM?$AA@   10015e6c     LIBCMT:nlsdata.obj
 0002:00001e70       ??_C@_02CJNFDJBF@PM?$AA@   10015e70     LIBCMT:nlsdata.obj
 0002:00001e74       ??_C@_08BPBNCDIB@MM?1dd?1yy?$AA@ 10015e74     LIBCMT:nlsdata.obj
 0002:00001e80       ??_C@_0BE@CKGJFCPC@dddd?0?5MMMM?5dd?0?5yyyy?$AA@ 10015e80     LIBCMT:nlsdata.obj
 0002:00001e94       ??_C@_08JCCMCCIL@HH?3mm?3ss?$AA@ 10015e94     LIBCMT:nlsdata.obj
 0002:00001ea0       ??_C@_17MBGCMIPB@?$AAS?$AAu?$AAn?$AA?$AA@ 10015ea0     LIBCMT:nlsdata.obj
 0002:00001ea8       ??_C@_17KBOMKBF@?$AAM?$AAo?$AAn?$AA?$AA@ 10015ea8     LIBCMT:nlsdata.obj
 0002:00001eb0       ??_C@_17BMKGEGOJ@?$AAT?$AAu?$AAe?$AA?$AA@ 10015eb0     LIBCMT:nlsdata.obj
 0002:00001eb8       ??_C@_17CJEDCEPE@?$AAW?$AAe?$AAd?$AA?$AA@ 10015eb8     LIBCMT:nlsdata.obj
 0002:00001ec0       ??_C@_17PDPHAADD@?$AAT?$AAh?$AAu?$AA?$AA@ 10015ec0     LIBCMT:nlsdata.obj
 0002:00001ec8       ??_C@_17HFOLPPLP@?$AAF?$AAr?$AAi?$AA?$AA@ 10015ec8     LIBCMT:nlsdata.obj
 0002:00001ed0       ??_C@_17GGIBDPIH@?$AAS?$AAa?$AAt?$AA?$AA@ 10015ed0     LIBCMT:nlsdata.obj
 0002:00001ed8       ??_C@_1O@IHNHDHPB@?$AAS?$AAu?$AAn?$AAd?$AAa?$AAy?$AA?$AA@ 10015ed8     LIBCMT:nlsdata.obj
 0002:00001ee8       ??_C@_1O@MMNBFLIA@?$AAM?$AAo?$AAn?$AAd?$AAa?$AAy?$AA?$AA@ 10015ee8     LIBCMT:nlsdata.obj
 0002:00001ef8       ??_C@_1BA@ENFBFFEK@?$AAT?$AAu?$AAe?$AAs?$AAd?$AAa?$AAy?$AA?$AA@ 10015ef8     LIBCMT:nlsdata.obj
 0002:00001f08       ??_C@_1BE@EBOGMDOH@?$AAW?$AAe?$AAd?$AAn?$AAe?$AAs?$AAd?$AAa?$AAy?$AA?$AA@ 10015f08     LIBCMT:nlsdata.obj
 0002:00001f1c       ??_C@_1BC@HHMNLIHE@?$AAT?$AAh?$AAu?$AAr?$AAs?$AAd?$AAa?$AAy?$AA?$AA@ 10015f1c     LIBCMT:nlsdata.obj
 0002:00001f30       ??_C@_1O@PDICJHAG@?$AAF?$AAr?$AAi?$AAd?$AAa?$AAy?$AA?$AA@ 10015f30     LIBCMT:nlsdata.obj
 0002:00001f40       ??_C@_1BC@ENMNNPAJ@?$AAS?$AAa?$AAt?$AAu?$AAr?$AAd?$AAa?$AAy?$AA?$AA@ 10015f40     LIBCMT:nlsdata.obj
 0002:00001f54       ??_C@_17DKNBKCHM@?$AAJ?$AAa?$AAn?$AA?$AA@ 10015f54     LIBCMT:nlsdata.obj
 0002:00001f5c       ??_C@_17LMDJEKJN@?$AAF?$AAe?$AAb?$AA?$AA@ 10015f5c     LIBCMT:nlsdata.obj
 0002:00001f64       ??_C@_17CKNLEDEC@?$AAM?$AAa?$AAr?$AA?$AA@ 10015f64     LIBCMT:nlsdata.obj
 0002:00001f6c       ??_C@_17LFPOIHDD@?$AAA?$AAp?$AAr?$AA?$AA@ 10015f6c     LIBCMT:nlsdata.obj
 0002:00001f74       ??_C@_17PNNKMEED@?$AAM?$AAa?$AAy?$AA?$AA@ 10015f74     LIBCMT:nlsdata.obj
 0002:00001f7c       ??_C@_17KCJGOCPB@?$AAJ?$AAu?$AAn?$AA?$AA@ 10015f7c     LIBCMT:nlsdata.obj
 0002:00001f84       ??_C@_17IJPCKHK@?$AAJ?$AAu?$AAl?$AA?$AA@ 10015f84     LIBCMT:nlsdata.obj
 0002:00001f8c       ??_C@_17ICPELBCN@?$AAA?$AAu?$AAg?$AA?$AA@ 10015f8c     LIBCMT:nlsdata.obj
 0002:00001f94       ??_C@_17HCHCOKMG@?$AAS?$AAe?$AAp?$AA?$AA@ 10015f94     LIBCMT:nlsdata.obj
 0002:00001f9c       ??_C@_17FNLKOI@?$AAO?$AAc?$AAt?$AA?$AA@ 10015f9c     LIBCMT:nlsdata.obj
 0002:00001fa4       ??_C@_17BBDMLCIG@?$AAN?$AAo?$AAv?$AA?$AA@ 10015fa4     LIBCMT:nlsdata.obj
 0002:00001fac       ??_C@_17EGKACKIF@?$AAD?$AAe?$AAc?$AA?$AA@ 10015fac     LIBCMT:nlsdata.obj
 0002:00001fb4       ??_C@_1BA@EFMEIEBA@?$AAJ?$AAa?$AAn?$AAu?$AAa?$AAr?$AAy?$AA?$AA@ 10015fb4     LIBCMT:nlsdata.obj
 0002:00001fc4       ??_C@_1BC@JGDDFFAM@?$AAF?$AAe?$AAb?$AAr?$AAu?$AAa?$AAr?$AAy?$AA?$AA@ 10015fc4     LIBCMT:nlsdata.obj
 0002:00001fd8       ??_C@_1M@IKEENEDF@?$AAM?$AAa?$AAr?$AAc?$AAh?$AA?$AA@ 10015fd8     LIBCMT:nlsdata.obj
 0002:00001fe4       ??_C@_1M@GJNLMHFD@?$AAA?$AAp?$AAr?$AAi?$AAl?$AA?$AA@ 10015fe4     LIBCMT:nlsdata.obj
 0002:00001ff0       ??_C@_19EPFLPGAP@?$AAJ?$AAu?$AAn?$AAe?$AA?$AA@ 10015ff0     LIBCMT:nlsdata.obj
 0002:00001ffc       ??_C@_19BIFMLPCD@?$AAJ?$AAu?$AAl?$AAy?$AA?$AA@ 10015ffc     LIBCMT:nlsdata.obj
 0002:00002008       ??_C@_1O@PAHLKOAC@?$AAA?$AAu?$AAg?$AAu?$AAs?$AAt?$AA?$AA@ 10016008     LIBCMT:nlsdata.obj
 0002:00002018       ??_C@_1BE@DKAAMBJL@?$AAS?$AAe?$AAp?$AAt?$AAe?$AAm?$AAb?$AAe?$AAr?$AA?$AA@ 10016018     LIBCMT:nlsdata.obj
 0002:0000202c       ??_C@_1BA@EPANDLNG@?$AAO?$AAc?$AAt?$AAo?$AAb?$AAe?$AAr?$AA?$AA@ 1001602c     LIBCMT:nlsdata.obj
 0002:0000203c       ??_C@_1BC@BGLIFPF@?$AAN?$AAo?$AAv?$AAe?$AAm?$AAb?$AAe?$AAr?$AA?$AA@ 1001603c     LIBCMT:nlsdata.obj
 0002:00002050       ??_C@_1BC@FEMKIFH@?$AAD?$AAe?$AAc?$AAe?$AAm?$AAb?$AAe?$AAr?$AA?$AA@ 10016050     LIBCMT:nlsdata.obj
 0002:00002064       ??_C@_15ODEHAHHF@?$AAA?$AAM?$AA?$AA@ 10016064     LIBCMT:nlsdata.obj
 0002:0000206c       ??_C@_15CLMNNGEL@?$AAP?$AAM?$AA?$AA@ 1001606c     LIBCMT:nlsdata.obj
 0002:00002074       ??_C@_1BC@IEBCMHCM@?$AAM?$AAM?$AA?1?$AAd?$AAd?$AA?1?$AAy?$AAy?$AA?$AA@ 10016074     LIBCMT:nlsdata.obj
 0002:00002088       ??_C@_1CI@KNAKOEBC@?$AAd?$AAd?$AAd?$AAd?$AA?0?$AA?5?$AAM?$AAM?$AAM?$AAM?$AA?5?$AAd?$AAd?$AA?0?$AA?5?$AAy?$AAy?$AAy?$AAy?$AA?$AA@ 10016088     LIBCMT:nlsdata.obj
 0002:000020b0       ??_C@_1BC@GDGBMEMK@?$AAH?$AAH?$AA?3?$AAm?$AAm?$AA?3?$AAs?$AAs?$AA?$AA@ 100160b0     LIBCMT:nlsdata.obj
 0002:000020c4       ??_C@_1M@BMHNFIME@?$AAe?$AAn?$AA?9?$AAU?$AAS?$AA?$AA@ 100160c4     LIBCMT:nlsdata.obj
 0002:00002150       __XcptActTab               10016150     LIBCMT:winxfltr.obj
 0002:000021e0       __XcptActTabCount          100161e0     LIBCMT:winxfltr.obj
 0002:000021e4       __XcptActTabSize           100161e4     LIBCMT:winxfltr.obj
 0002:000021e8       __First_FPE_Indx           100161e8     LIBCMT:winxfltr.obj
 0002:000021ec       __Num_FPE                  100161ec     LIBCMT:winxfltr.obj
 0002:000021f0       ??_C@_1BK@MGMFAEKH@?$AAk?$AAe?$AAr?$AAn?$AAe?$AAl?$AA3?$AA2?$AA?4?$AAd?$AAl?$AAl?$AA?$AA@ 100161f0     LIBCMT:winapisupp.obj
 0002:0000220c       ??_C@_08KNHFBNJ@FlsAlloc?$AA@ 1001620c     LIBCMT:winapisupp.obj
 0002:00002218       ??_C@_07PEJMOBNF@FlsFree?$AA@ 10016218     LIBCMT:winapisupp.obj
 0002:00002220       ??_C@_0M@GDNOONDI@FlsGetValue?$AA@ 10016220     LIBCMT:winapisupp.obj
 0002:0000222c       ??_C@_0M@JCPCPOEF@FlsSetValue?$AA@ 1001622c     LIBCMT:winapisupp.obj
 0002:00002238       ??_C@_0BM@HCFOFFN@InitializeCriticalSectionEx?$AA@ 10016238     LIBCMT:winapisupp.obj
 0002:00002254       ??_C@_0P@DLHPPCNH@CreateEventExW?$AA@ 10016254     LIBCMT:winapisupp.obj
 0002:00002264       ??_C@_0BD@KIEEOEEH@CreateSemaphoreExW?$AA@ 10016264     LIBCMT:winapisupp.obj
 0002:00002278       ??_C@_0BI@BKLFFAPO@SetThreadStackGuarantee?$AA@ 10016278     LIBCMT:winapisupp.obj
 0002:00002290       ??_C@_0BG@OGFAJCKC@CreateThreadpoolTimer?$AA@ 10016290     LIBCMT:winapisupp.obj
 0002:000022a8       ??_C@_0BD@LPLEMMDI@SetThreadpoolTimer?$AA@ 100162a8     LIBCMT:winapisupp.obj
 0002:000022bc       ??_C@_0CA@FMNJENH@WaitForThreadpoolTimerCallbacks?$AA@ 100162bc     LIBCMT:winapisupp.obj
 0002:000022dc       ??_C@_0BF@DCFCCNOC@CloseThreadpoolTimer?$AA@ 100162dc     LIBCMT:winapisupp.obj
 0002:000022f4       ??_C@_0BF@FLABGKKM@CreateThreadpoolWait?$AA@ 100162f4     LIBCMT:winapisupp.obj
 0002:0000230c       ??_C@_0BC@MGCOHNA@SetThreadpoolWait?$AA@ 1001630c     LIBCMT:winapisupp.obj
 0002:00002320       ??_C@_0BE@OCIOMIMP@CloseThreadpoolWait?$AA@ 10016320     LIBCMT:winapisupp.obj
 0002:00002334       ??_C@_0BJ@LKGHFHBO@FlushProcessWriteBuffers?$AA@ 10016334     LIBCMT:winapisupp.obj
 0002:00002350       ??_C@_0BP@KALKKPMO@FreeLibraryWhenCallbackReturns?$AA@ 10016350     LIBCMT:winapisupp.obj
 0002:00002370       ??_C@_0BK@DFNBACLA@GetCurrentProcessorNumber?$AA@ 10016370     LIBCMT:winapisupp.obj
 0002:0000238c       ??_C@_0BP@KHGALBC@GetLogicalProcessorInformation?$AA@ 1001638c     LIBCMT:winapisupp.obj
 0002:000023ac       ??_C@_0BE@FKKLLFLM@CreateSymbolicLinkW?$AA@ 100163ac     LIBCMT:winapisupp.obj
 0002:000023c0       ??_C@_0BJ@OHNKDLIJ@SetDefaultDllDirectories?$AA@ 100163c0     LIBCMT:winapisupp.obj
 0002:000023dc       ??_C@_0BE@LJANKFHF@EnumSystemLocalesEx?$AA@ 100163dc     LIBCMT:winapisupp.obj
 0002:000023f0       ??_C@_0BA@IHGNDAEB@CompareStringEx?$AA@ 100163f0     LIBCMT:winapisupp.obj
 0002:00002400       ??_C@_0BA@EPCJIIPD@GetDateFormatEx?$AA@ 10016400     LIBCMT:winapisupp.obj
 0002:00002410       ??_C@_0BA@ONOKGCMP@GetLocaleInfoEx?$AA@ 10016410     LIBCMT:winapisupp.obj
 0002:00002420       ??_C@_0BA@CIJJKCJJ@GetTimeFormatEx?$AA@ 10016420     LIBCMT:winapisupp.obj
 0002:00002430       ??_C@_0BJ@PBCCBIPI@GetUserDefaultLocaleName?$AA@ 10016430     LIBCMT:winapisupp.obj
 0002:0000244c       ??_C@_0BC@CELBKLLA@IsValidLocaleName?$AA@ 1001644c     LIBCMT:winapisupp.obj
 0002:00002460       ??_C@_0O@KKBNKAPF@LCMapStringEx?$AA@ 10016460     LIBCMT:winapisupp.obj
 0002:00002470       ??_C@_0BE@JOGNEJCI@GetCurrentPackageId?$AA@ 10016470     LIBCMT:winapisupp.obj
 0002:00002484       ??_C@_0P@CDHHOHKP@GetTickCount64?$AA@ 10016484     LIBCMT:winapisupp.obj
 0002:00002494       ??_C@_0BO@KPCLFDJJ@GetFileInformationByHandleExW?$AA@ 10016494     LIBCMT:winapisupp.obj
 0002:000024b4       ??_C@_0BM@MHIDLABK@SetFileInformationByHandleW?$AA@ 100164b4     LIBCMT:winapisupp.obj
 0002:000024d0       __pDestructExceptionObject 100164d0     LIBCMT:frame.obj
 0002:000024d8       ??_7bad_exception@std@@6B@ 100164d8     LIBCMT:frame.obj
 0002:000024e0       ??_C@_0O@DPKOEFFH@bad?5exception?$AA@ 100164e0     LIBCMT:frame.obj
 0002:000024f0       ??_C@_05KLBDPFGC@e?$CL000?$AA@ 100164f0     LIBCMT:cvt.obj
 0002:000024f8       _LcidToLocaleNameTable     100164f8     LIBCMT:winapinls.obj
 0002:00002c18       _LocaleNameToIndexTable    10016c18     LIBCMT:winapinls.obj
 0002:00003338       ??_C@_15EMKDOKLE@?$AAa?$AAr?$AA?$AA@ 10017338     LIBCMT:winapinls.obj
 0002:00003340       ??_C@_15KNPADPLH@?$AAb?$AAg?$AA?$AA@ 10017340     LIBCMT:winapinls.obj
 0002:00003348       ??_C@_15EDMHLDMO@?$AAc?$AAa?$AA?$AA@ 10017348     LIBCMT:winapinls.obj
 0002:00003350       ??_C@_1O@BPEAJADD@?$AAz?$AAh?$AA?9?$AAC?$AAH?$AAS?$AA?$AA@ 10017350     LIBCMT:winapinls.obj
 0002:00003360       ??_C@_15LJNHCMNK@?$AAc?$AAs?$AA?$AA@ 10017360     LIBCMT:winapinls.obj
 0002:00003368       ??_C@_15FOMCIDHG@?$AAd?$AAa?$AA?$AA@ 10017368     LIBCMT:winapinls.obj
 0002:00003370       ??_C@_15NBKABECB@?$AAd?$AAe?$AA?$AA@ 10017370     LIBCMT:winapinls.obj
 0002:00003378       ??_C@_15GHPEIIAO@?$AAe?$AAl?$AA?$AA@ 10017378     LIBCMT:winapinls.obj
 0002:00003380       ??_C@_15MNPNEAIF@?$AAe?$AAn?$AA?$AA@ 10017380     LIBCMT:winapinls.obj
 0002:00003388       ??_C@_15GPIOMPMH@?$AAe?$AAs?$AA?$AA@ 10017388     LIBCMT:winapinls.obj
 0002:00003390       ??_C@_15NGLOAKJC@?$AAf?$AAi?$AA?$AA@ 10017390     LIBCMT:winapinls.obj
 0002:00003398       ??_C@_15FBKGNKAM@?$AAf?$AAr?$AA?$AA@ 10017398     LIBCMT:winapinls.obj
 0002:000033a0       ??_C@_15KGGCNEFK@?$AAh?$AAe?$AA?$AA@ 100173a0     LIBCMT:winapinls.obj
 0002:000033a8       ??_C@_15PGHLIDMF@?$AAh?$AAu?$AA?$AA@ 100173a8     LIBCMT:winapinls.obj
 0002:000033b0       ??_C@_15BIEMAPLM@?$AAi?$AAs?$AA?$AA@ 100173b0     LIBCMT:winapinls.obj
 0002:000033b8       ??_C@_15IFJLDHAF@?$AAi?$AAt?$AA?$AA@ 100173b8     LIBCMT:winapinls.obj
 0002:000033c0       ??_C@_15GEMIOCAG@?$AAj?$AAa?$AA?$AA@ 100173c0     LIBCMT:winapinls.obj
 0002:000033c8       ??_C@_15EPELEGJA@?$AAk?$AAo?$AA?$AA@ 100173c8     LIBCMT:winapinls.obj
 0002:000033d0       ??_C@_15NDDHIMN@?$AAn?$AAl?$AA?$AA@ 100173d0     LIBCMT:winapinls.obj
 0002:000033d8       ??_C@_15BPIGNHCD@?$AAn?$AAo?$AA?$AA@ 100173d8     LIBCMT:winapinls.obj
 0002:000033e0       ??_C@_15DEOPBLCG@?$AAp?$AAl?$AA?$AA@ 100173e0     LIBCMT:winapinls.obj
 0002:000033e8       ??_C@_15KBECGEFG@?$AAp?$AAt?$AA?$AA@ 100173e8     LIBCMT:winapinls.obj
 0002:000033f0       ??_C@_15GLJCBFMD@?$AAr?$AAo?$AA?$AA@ 100173f0     LIBCMT:winapinls.obj
 0002:000033f8       ??_C@_15FEDGKCDI@?$AAr?$AAu?$AA?$AA@ 100173f8     LIBCMT:winapinls.obj
 0002:00003400       ??_C@_15GLKMLLHM@?$AAh?$AAr?$AA?$AA@ 10017400     LIBCMT:winapinls.obj
 0002:00003408       ??_C@_15CPKMFBDB@?$AAs?$AAk?$AA?$AA@ 10017408     LIBCMT:winapinls.obj
 0002:00003410       ??_C@_15BAAIOGMK@?$AAs?$AAq?$AA?$AA@ 10017410     LIBCMT:winapinls.obj
 0002:00003418       ??_C@_15INNPNOHD@?$AAs?$AAv?$AA?$AA@ 10017418     LIBCMT:winapinls.obj
 0002:00003420       ??_C@_15CABMMOGH@?$AAt?$AAh?$AA?$AA@ 10017420     LIBCMT:winapinls.obj
 0002:00003428       ??_C@_15BPLIHJJM@?$AAt?$AAr?$AA?$AA@ 10017428     LIBCMT:winapinls.obj
 0002:00003430       ??_C@_15NEOEKKDJ@?$AAu?$AAr?$AA?$AA@ 10017430     LIBCMT:winapinls.obj
 0002:00003438       ??_C@_15NFICGAJK@?$AAi?$AAd?$AA?$AA@ 10017438     LIBCMT:winapinls.obj
 0002:00003440       ??_C@_15PJPFLCCM@?$AAu?$AAk?$AA?$AA@ 10017440     LIBCMT:winapinls.obj
 0002:00003448       ??_C@_15HPJPHDM@?$AAb?$AAe?$AA?$AA@ 10017448     LIBCMT:winapinls.obj
 0002:00003450       ??_C@_15LCHLGJII@?$AAs?$AAl?$AA?$AA@ 10017450     LIBCMT:winapinls.obj
 0002:00003458       ??_C@_15PCFJPHHO@?$AAe?$AAt?$AA?$AA@ 10017458     LIBCMT:winapinls.obj
 0002:00003460       ??_C@_15HPFPGODN@?$AAl?$AAv?$AA?$AA@ 10017460     LIBCMT:winapinls.obj
 0002:00003468       ??_C@_15NFFGKGLG@?$AAl?$AAt?$AA?$AA@ 10017468     LIBCMT:winapinls.obj
 0002:00003470       ??_C@_15BDAKCCHN@?$AAf?$AAa?$AA?$AA@ 10017470     LIBCMT:winapinls.obj
 0002:00003478       ??_C@_15NFGIAIAJ@?$AAv?$AAi?$AA?$AA@ 10017478     LIBCMT:winapinls.obj
 0002:00003480       ??_C@_15LMKNDMHN@?$AAh?$AAy?$AA?$AA@ 10017480     LIBCMT:winapinls.obj
 0002:00003488       ??_C@_15IJBHMCFL@?$AAa?$AAz?$AA?$AA@ 10017488     LIBCMT:winapinls.obj
 0002:00003490       ??_C@_15EKOFJABL@?$AAe?$AAu?$AA?$AA@ 10017490     LIBCMT:winapinls.obj
 0002:00003498       ??_C@_15BGHADCNK@?$AAm?$AAk?$AA?$AA@ 10017498     LIBCMT:winapinls.obj
 0002:000034a0       ??_C@_15JDNICKHM@?$AAa?$AAf?$AA?$AA@ 100174a0     LIBCMT:winapinls.obj
 0002:000034a8       ??_C@_15KPJEDBKD@?$AAk?$AAa?$AA?$AA@ 100174a8     LIBCMT:winapinls.obj
 0002:000034b0       ??_C@_15PDNFFFEO@?$AAf?$AAo?$AA?$AA@ 100174b0     LIBCMT:winapinls.obj
 0002:000034b8       ??_C@_15OMLEGLOC@?$AAh?$AAi?$AA?$AA@ 100174b8     LIBCMT:winapinls.obj
 0002:000034c0       ??_C@_15IDNNENKK@?$AAm?$AAs?$AA?$AA@ 100174c0     LIBCMT:winapinls.obj
 0002:000034c8       ??_C@_15MACJNBMH@?$AAk?$AAk?$AA?$AA@ 100174c8     LIBCMT:winapinls.obj
 0002:000034d0       ??_C@_15DKDJEOND@?$AAk?$AAy?$AA?$AA@ 100174d0     LIBCMT:winapinls.obj
 0002:000034d8       ??_C@_15DFGDLJBG@?$AAs?$AAw?$AA?$AA@ 100174d8     LIBCMT:winapinls.obj
 0002:000034e0       ??_C@_15BBFAICNG@?$AAu?$AAz?$AA?$AA@ 100174e0     LIBCMT:winapinls.obj
 0002:000034e8       ??_C@_15DKNDCGEA@?$AAt?$AAt?$AA?$AA@ 100174e8     LIBCMT:winapinls.obj
 0002:000034f0       ??_C@_15MGIFMDPL@?$AAp?$AAa?$AA?$AA@ 100174f0     LIBCMT:winapinls.obj
 0002:000034f8       ??_C@_15HCNDBBA@?$AAg?$AAu?$AA?$AA@ 100174f8     LIBCMT:winapinls.obj
 0002:00003500       ??_C@_15FNBEIBON@?$AAt?$AAa?$AA?$AA@ 10017500     LIBCMT:winapinls.obj
 0002:00003508       ??_C@_15NCHGBGLK@?$AAt?$AAe?$AA?$AA@ 10017508     LIBCMT:winapinls.obj
 0002:00003510       ??_C@_15PHPHCBPF@?$AAk?$AAn?$AA?$AA@ 10017510     LIBCMT:winapinls.obj
 0002:00003518       ??_C@_15DLGBCKMP@?$AAm?$AAr?$AA?$AA@ 10017518     LIBCMT:winapinls.obj
 0002:00003520       ??_C@_15EABBLBFF@?$AAs?$AAa?$AA?$AA@ 10017520     LIBCMT:winapinls.obj
 0002:00003528       ??_C@_15CBKOMCOI@?$AAm?$AAn?$AA?$AA@ 10017528     LIBCMT:winapinls.obj
 0002:00003530       ??_C@_15CKDMCJAF@?$AAg?$AAl?$AA?$AA@ 10017530     LIBCMT:winapinls.obj
 0002:00003538       ??_C@_17CNJFBPG@?$AAk?$AAo?$AAk?$AA?$AA@ 10017538     LIBCMT:winapinls.obj
 0002:00003540       ??_C@_17FFBJICPL@?$AAs?$AAy?$AAr?$AA?$AA@ 10017540     LIBCMT:winapinls.obj
 0002:00003548       ??_C@_17KPNDCPAF@?$AAd?$AAi?$AAv?$AA?$AA@ 10017548     LIBCMT:winapinls.obj
 0002:00003550       ??_C@_11LOCGONAA@?$AA?$AA@ 10017550     LIBCMT:winapinls.obj
 0002:00003554       ??_C@_1M@OKAHONE@?$AAa?$AAr?$AA?9?$AAS?$AAA?$AA?$AA@ 10017554     LIBCMT:winapinls.obj
 0002:00003560       ??_C@_1M@FFFIGIGK@?$AAb?$AAg?$AA?9?$AAB?$AAG?$AA?$AA@ 10017560     LIBCMT:winapinls.obj
 0002:0000356c       ??_C@_1M@BJNKEDC@?$AAc?$AAa?$AA?9?$AAE?$AAS?$AA?$AA@ 1001756c     LIBCMT:winapinls.obj
 0002:00003578       ??_C@_1M@IJJHFJHA@?$AAc?$AAs?$AA?9?$AAC?$AAZ?$AA?$AA@ 10017578     LIBCMT:winapinls.obj
 0002:00003584       ??_C@_1M@CLPEOBGI@?$AAd?$AAa?$AA?9?$AAD?$AAK?$AA?$AA@ 10017584     LIBCMT:winapinls.obj
 0002:00003590       ??_C@_1M@MCMADGCB@?$AAd?$AAe?$AA?9?$AAD?$AAE?$AA?$AA@ 10017590     LIBCMT:winapinls.obj
 0002:0000359c       ??_C@_1M@OOCKEMAM@?$AAe?$AAl?$AA?9?$AAG?$AAR?$AA?$AA@ 1001759c     LIBCMT:winapinls.obj
 0002:000035a8       ??_C@_1M@DDNJFGID@?$AAf?$AAi?$AA?9?$AAF?$AAI?$AA?$AA@ 100175a8     LIBCMT:winapinls.obj
 0002:000035b4       ??_C@_1M@GLIPPMAC@?$AAf?$AAr?$AA?9?$AAF?$AAR?$AA?$AA@ 100175b4     LIBCMT:winapinls.obj
 0002:000035c0       ??_C@_1M@GFMCHPE@?$AAh?$AAe?$AA?9?$AAI?$AAL?$AA?$AA@ 100175c0     LIBCMT:winapinls.obj
 0002:000035cc       ??_C@_1M@MHLPGNKM@?$AAh?$AAu?$AA?9?$AAH?$AAU?$AA?$AA@ 100175cc     LIBCMT:winapinls.obj
 0002:000035d8       ??_C@_1M@LPDDNNPN@?$AAi?$AAs?$AA?9?$AAI?$AAS?$AA?$AA@ 100175d8     LIBCMT:winapinls.obj
 0002:000035e4       ??_C@_1M@MADIPODN@?$AAi?$AAt?$AA?9?$AAI?$AAT?$AA?$AA@ 100175e4     LIBCMT:winapinls.obj
 0002:000035f0       ??_C@_1M@IHBJJGG@?$AAn?$AAl?$AA?9?$AAN?$AAL?$AA?$AA@ 100175f0     LIBCMT:winapinls.obj
 0002:000035fc       ??_C@_1M@EANAGDL@?$AAn?$AAb?$AA?9?$AAN?$AAO?$AA?$AA@ 100175fc     LIBCMT:winapinls.obj
 0002:00003608       ??_C@_1M@NEIEMEGP@?$AAp?$AAl?$AA?9?$AAP?$AAL?$AA?$AA@ 10017608     LIBCMT:winapinls.obj
 0002:00003614       ??_C@_1M@BOCFIGEP@?$AAp?$AAt?$AA?9?$AAB?$AAR?$AA?$AA@ 10017614     LIBCMT:winapinls.obj
 0002:00003620       ??_C@_1M@IMPFOPBG@?$AAr?$AAo?$AA?9?$AAR?$AAO?$AA?$AA@ 10017620     LIBCMT:winapinls.obj
 0002:0000362c       ??_C@_1M@IDNNEJMM@?$AAr?$AAu?$AA?9?$AAR?$AAU?$AA?$AA@ 1001762c     LIBCMT:winapinls.obj
 0002:00003638       ??_C@_1M@LILEEOGM@?$AAh?$AAr?$AA?9?$AAH?$AAR?$AA?$AA@ 10017638     LIBCMT:winapinls.obj
 0002:00003644       ??_C@_1M@FKIFEHPB@?$AAs?$AAk?$AA?9?$AAS?$AAK?$AA?$AA@ 10017644     LIBCMT:winapinls.obj
 0002:00003650       ??_C@_1M@LJMAMNPJ@?$AAs?$AAq?$AA?9?$AAA?$AAL?$AA?$AA@ 10017650     LIBCMT:winapinls.obj
 0002:0000365c       ??_C@_1M@GIAKDKJK@?$AAs?$AAv?$AA?9?$AAS?$AAE?$AA?$AA@ 1001765c     LIBCMT:winapinls.obj
 0002:00003668       ??_C@_1M@MKJKIKCL@?$AAt?$AAh?$AA?9?$AAT?$AAH?$AA?$AA@ 10017668     LIBCMT:winapinls.obj
 0002:00003674       ??_C@_1M@MFLCCMPB@?$AAt?$AAr?$AA?9?$AAT?$AAR?$AA?$AA@ 10017674     LIBCMT:winapinls.obj
 0002:00003680       ??_C@_1M@OIJHDKJN@?$AAu?$AAr?$AA?9?$AAP?$AAK?$AA?$AA@ 10017680     LIBCMT:winapinls.obj
 0002:0000368c       ??_C@_1M@LHIPCIEK@?$AAi?$AAd?$AA?9?$AAI?$AAD?$AA?$AA@ 1001768c     LIBCMT:winapinls.obj
 0002:00003698       ??_C@_1M@MFMOBGI@?$AAu?$AAk?$AA?9?$AAU?$AAA?$AA?$AA@ 10017698     LIBCMT:winapinls.obj
 0002:000036a4       ??_C@_1M@OBGLJIPL@?$AAb?$AAe?$AA?9?$AAB?$AAY?$AA?$AA@ 100176a4     LIBCMT:winapinls.obj
 0002:000036b0       ??_C@_1M@BCFAJEAD@?$AAs?$AAl?$AA?9?$AAS?$AAI?$AA?$AA@ 100176b0     LIBCMT:winapinls.obj
 0002:000036bc       ??_C@_1M@FKFFEDDN@?$AAe?$AAt?$AA?9?$AAE?$AAE?$AA?$AA@ 100176bc     LIBCMT:winapinls.obj
 0002:000036c8       ??_C@_1M@KGKKAACI@?$AAl?$AAv?$AA?9?$AAL?$AAV?$AA?$AA@ 100176c8     LIBCMT:winapinls.obj
 0002:000036d4       ??_C@_1M@IFGBIJO@?$AAl?$AAt?$AA?9?$AAL?$AAT?$AA?$AA@ 100176d4     LIBCMT:winapinls.obj
 0002:000036e0       ??_C@_1M@FGEAHEDM@?$AAf?$AAa?$AA?9?$AAI?$AAR?$AA?$AA@ 100176e0     LIBCMT:winapinls.obj
 0002:000036ec       ??_C@_1M@KBMAIBFN@?$AAv?$AAi?$AA?9?$AAV?$AAN?$AA?$AA@ 100176ec     LIBCMT:winapinls.obj
 0002:000036f8       ??_C@_1M@GPCBKDJK@?$AAh?$AAy?$AA?9?$AAA?$AAM?$AA?$AA@ 100176f8     LIBCMT:winapinls.obj
 0002:00003704       ??_C@_1BG@BECMDDJB@?$AAa?$AAz?$AA?9?$AAA?$AAZ?$AA?9?$AAL?$AAa?$AAt?$AAn?$AA?$AA@ 10017704     LIBCMT:winapinls.obj
 0002:0000371c       ??_C@_1M@MAOFCAEA@?$AAe?$AAu?$AA?9?$AAE?$AAS?$AA?$AA@ 1001771c     LIBCMT:winapinls.obj
 0002:00003728       ??_C@_1M@IGHABKPI@?$AAm?$AAk?$AA?9?$AAM?$AAK?$AA?$AA@ 10017728     LIBCMT:winapinls.obj
 0002:00003734       ??_C@_1M@IAIGNEJG@?$AAt?$AAn?$AA?9?$AAZ?$AAA?$AA?$AA@ 10017734     LIBCMT:winapinls.obj
 0002:00003740       ??_C@_1M@IIJCOJFA@?$AAx?$AAh?$AA?9?$AAZ?$AAA?$AA?$AA@ 10017740     LIBCMT:winapinls.obj
 0002:0000374c       ??_C@_1M@LGPJHNJH@?$AAz?$AAu?$AA?9?$AAZ?$AAA?$AA?$AA@ 1001774c     LIBCMT:winapinls.obj
 0002:00003758       ??_C@_1M@HOKAOIO@?$AAa?$AAf?$AA?9?$AAZ?$AAA?$AA?$AA@ 10017758     LIBCMT:winapinls.obj
 0002:00003764       ??_C@_1M@DPCLHLIE@?$AAk?$AAa?$AA?9?$AAG?$AAE?$AA?$AA@ 10017764     LIBCMT:winapinls.obj
 0002:00003770       ??_C@_1M@BLKMHJBI@?$AAf?$AAo?$AA?9?$AAF?$AAO?$AA?$AA@ 10017770     LIBCMT:winapinls.obj
 0002:0000377c       ??_C@_1M@LGGJAPPB@?$AAh?$AAi?$AA?9?$AAI?$AAN?$AA?$AA@ 1001777c     LIBCMT:winapinls.obj
 0002:00003788       ??_C@_1M@FIKPIHFE@?$AAm?$AAt?$AA?9?$AAM?$AAT?$AA?$AA@ 10017788     LIBCMT:winapinls.obj
 0002:00003794       ??_C@_1M@HEGGPBFA@?$AAs?$AAe?$AA?9?$AAN?$AAO?$AA?$AA@ 10017794     LIBCMT:winapinls.obj
 0002:000037a0       ??_C@_1M@EIBJEEPA@?$AAm?$AAs?$AA?9?$AAM?$AAY?$AA?$AA@ 100177a0     LIBCMT:winapinls.obj
 0002:000037ac       ??_C@_1M@FHLBGMPP@?$AAk?$AAk?$AA?9?$AAK?$AAZ?$AA?$AA@ 100177ac     LIBCMT:winapinls.obj
 0002:000037b8       ??_C@_1M@NGJJLCGI@?$AAk?$AAy?$AA?9?$AAK?$AAG?$AA?$AA@ 100177b8     LIBCMT:winapinls.obj
 0002:000037c4       ??_C@_1M@GIENNBFC@?$AAs?$AAw?$AA?9?$AAK?$AAE?$AA?$AA@ 100177c4     LIBCMT:winapinls.obj
 0002:000037d0       ??_C@_1BG@NDGMJIMJ@?$AAu?$AAz?$AA?9?$AAU?$AAZ?$AA?9?$AAL?$AAa?$AAt?$AAn?$AA?$AA@ 100177d0     LIBCMT:winapinls.obj
 0002:000037e8       ??_C@_1M@IDCCIHBC@?$AAt?$AAt?$AA?9?$AAR?$AAU?$AA?$AA@ 100177e8     LIBCMT:winapinls.obj
 0002:000037f4       ??_C@_1M@LOICPMOJ@?$AAb?$AAn?$AA?9?$AAI?$AAN?$AA?$AA@ 100177f4     LIBCMT:winapinls.obj
 0002:00003800       ??_C@_1M@KPKKNEAH@?$AAp?$AAa?$AA?9?$AAI?$AAN?$AA?$AA@ 10017800     LIBCMT:winapinls.obj
 0002:0000380c       ??_C@_1M@PJGPPBOG@?$AAg?$AAu?$AA?9?$AAI?$AAN?$AA?$AA@ 1001780c     LIBCMT:winapinls.obj
 0002:00003818       ??_C@_1M@KMKMOPHI@?$AAt?$AAa?$AA?9?$AAI?$AAN?$AA?$AA@ 10017818     LIBCMT:winapinls.obj
 0002:00003824       ??_C@_1M@KFEHEPAC@?$AAt?$AAe?$AA?9?$AAI?$AAN?$AA?$AA@ 10017824     LIBCMT:winapinls.obj
 0002:00003830       ??_C@_1M@CDCLMGHI@?$AAk?$AAn?$AA?9?$AAI?$AAN?$AA?$AA@ 10017830     LIBCMT:winapinls.obj
 0002:0000383c       ??_C@_1M@MIODLDKF@?$AAm?$AAl?$AA?9?$AAI?$AAN?$AA?$AA@ 1001783c     LIBCMT:winapinls.obj
 0002:00003848       ??_C@_1M@PBIEACPO@?$AAm?$AAr?$AA?9?$AAI?$AAN?$AA?$AA@ 10017848     LIBCMT:winapinls.obj
 0002:00003854       ??_C@_1M@NIDEAGPH@?$AAs?$AAa?$AA?9?$AAI?$AAN?$AA?$AA@ 10017854     LIBCMT:winapinls.obj
 0002:00003860       ??_C@_1M@FHIHCBIO@?$AAm?$AAn?$AA?9?$AAM?$AAN?$AA?$AA@ 10017860     LIBCMT:winapinls.obj
 0002:0000386c       ??_C@_1M@JAIJPENP@?$AAc?$AAy?$AA?9?$AAG?$AAB?$AA?$AA@ 1001786c     LIBCMT:winapinls.obj
 0002:00003878       ??_C@_1M@PHGFBEPN@?$AAg?$AAl?$AA?9?$AAE?$AAS?$AA?$AA@ 10017878     LIBCMT:winapinls.obj
 0002:00003884       ??_C@_1O@KPIPDNCP@?$AAk?$AAo?$AAk?$AA?9?$AAI?$AAN?$AA?$AA@ 10017884     LIBCMT:winapinls.obj
 0002:00003894       ??_C@_1O@KNHJLDJA@?$AAs?$AAy?$AAr?$AA?9?$AAS?$AAY?$AA?$AA@ 10017894     LIBCMT:winapinls.obj
 0002:000038a4       ??_C@_1O@MKEKBLAH@?$AAd?$AAi?$AAv?$AA?9?$AAM?$AAV?$AA?$AA@ 100178a4     LIBCMT:winapinls.obj
 0002:000038b4       ??_C@_1O@OHDCKDDF@?$AAq?$AAu?$AAz?$AA?9?$AAB?$AAO?$AA?$AA@ 100178b4     LIBCMT:winapinls.obj
 0002:000038c4       ??_C@_1M@LEPJNLFD@?$AAn?$AAs?$AA?9?$AAZ?$AAA?$AA?$AA@ 100178c4     LIBCMT:winapinls.obj
 0002:000038d0       ??_C@_1M@OMLEIIJB@?$AAm?$AAi?$AA?9?$AAN?$AAZ?$AA?$AA@ 100178d0     LIBCMT:winapinls.obj
 0002:000038dc       ??_C@_1M@PMPEAILG@?$AAa?$AAr?$AA?9?$AAI?$AAQ?$AA?$AA@ 100178dc     LIBCMT:winapinls.obj
 0002:000038e8       ??_C@_1M@CNKPNOEE@?$AAd?$AAe?$AA?9?$AAC?$AAH?$AA?$AA@ 100178e8     LIBCMT:winapinls.obj
 0002:000038f4       ??_C@_1M@LKMGMLKO@?$AAe?$AAn?$AA?9?$AAG?$AAB?$AA?$AA@ 100178f4     LIBCMT:winapinls.obj
 0002:00003900       ??_C@_1M@PGKJFFGL@?$AAe?$AAs?$AA?9?$AAM?$AAX?$AA?$AA@ 10017900     LIBCMT:winapinls.obj
 0002:0000390c       ??_C@_1M@DNNANBDC@?$AAf?$AAr?$AA?9?$AAB?$AAE?$AA?$AA@ 1001790c     LIBCMT:winapinls.obj
 0002:00003918       ??_C@_1M@HLGMDFHM@?$AAi?$AAt?$AA?9?$AAC?$AAH?$AA?$AA@ 10017918     LIBCMT:winapinls.obj
 0002:00003924       ??_C@_1M@CLLBGJH@?$AAn?$AAl?$AA?9?$AAB?$AAE?$AA?$AA@ 10017924     LIBCMT:winapinls.obj
 0002:00003930       ??_C@_1M@BODBOGLF@?$AAn?$AAn?$AA?9?$AAN?$AAO?$AA?$AA@ 10017930     LIBCMT:winapinls.obj
 0002:0000393c       ??_C@_1M@HFFAHKAD@?$AAp?$AAt?$AA?9?$AAP?$AAT?$AA?$AA@ 1001793c     LIBCMT:winapinls.obj
 0002:00003948       ??_C@_1BG@LNOAKHIE@?$AAs?$AAr?$AA?9?$AAS?$AAP?$AA?9?$AAL?$AAa?$AAt?$AAn?$AA?$AA@ 10017948     LIBCMT:winapinls.obj
 0002:00003960       ??_C@_1M@HBMHBGAK@?$AAs?$AAv?$AA?9?$AAF?$AAI?$AA?$AA@ 10017960     LIBCMT:winapinls.obj
 0002:0000396c       ??_C@_1BG@DGCJGJBE@?$AAa?$AAz?$AA?9?$AAA?$AAZ?$AA?9?$AAC?$AAy?$AAr?$AAl?$AA?$AA@ 1001796c     LIBCMT:winapinls.obj
 0002:00003984       ??_C@_1M@KEJDAAHB@?$AAs?$AAe?$AA?9?$AAS?$AAE?$AA?$AA@ 10017984     LIBCMT:winapinls.obj
 0002:00003990       ??_C@_1M@HEIBJJAD@?$AAm?$AAs?$AA?9?$AAB?$AAN?$AA?$AA@ 10017990     LIBCMT:winapinls.obj
 0002:0000399c       ??_C@_1BG@PBGJMCEM@?$AAu?$AAz?$AA?9?$AAU?$AAZ?$AA?9?$AAC?$AAy?$AAr?$AAl?$AA?$AA@ 1001799c     LIBCMT:winapinls.obj
 0002:000039b4       ??_C@_1O@LAOBCMDF@?$AAq?$AAu?$AAz?$AA?9?$AAE?$AAC?$AA?$AA@ 100179b4     LIBCMT:winapinls.obj
 0002:000039c4       ??_C@_1M@POEEMAIO@?$AAa?$AAr?$AA?9?$AAE?$AAG?$AA?$AA@ 100179c4     LIBCMT:winapinls.obj
 0002:000039d0       ??_C@_1M@EFAKDEDL@?$AAz?$AAh?$AA?9?$AAH?$AAK?$AA?$AA@ 100179d0     LIBCMT:winapinls.obj
 0002:000039dc       ??_C@_1M@HKKIJHGI@?$AAd?$AAe?$AA?9?$AAA?$AAT?$AA?$AA@ 100179dc     LIBCMT:winapinls.obj
 0002:000039e8       ??_C@_1M@KBFBEHJF@?$AAe?$AAn?$AA?9?$AAA?$AAU?$AA?$AA@ 100179e8     LIBCMT:winapinls.obj
 0002:000039f4       ??_C@_1M@MNPLFAAH@?$AAe?$AAs?$AA?9?$AAE?$AAS?$AA?$AA@ 100179f4     LIBCMT:winapinls.obj
 0002:00003a00       ??_C@_1M@HJOOJFMA@?$AAf?$AAr?$AA?9?$AAC?$AAA?$AA?$AA@ 10017a00     LIBCMT:winapinls.obj
 0002:00003a0c       ??_C@_1BG@JPOFPNAB@?$AAs?$AAr?$AA?9?$AAS?$AAP?$AA?9?$AAC?$AAy?$AAr?$AAl?$AA?$AA@ 10017a0c     LIBCMT:winapinls.obj
 0002:00003a24       ??_C@_1M@LNFOCMOB@?$AAs?$AAe?$AA?9?$AAF?$AAI?$AA?$AA@ 10017a24     LIBCMT:winapinls.obj
 0002:00003a30       ??_C@_1O@MGJBOAMB@?$AAq?$AAu?$AAz?$AA?9?$AAP?$AAE?$AA?$AA@ 10017a30     LIBCMT:winapinls.obj
 0002:00003a40       ??_C@_1M@GJINLBOK@?$AAa?$AAr?$AA?9?$AAL?$AAY?$AA?$AA@ 10017a40     LIBCMT:winapinls.obj
 0002:00003a4c       ??_C@_1M@GGMNHJNL@?$AAz?$AAh?$AA?9?$AAS?$AAG?$AA?$AA@ 10017a4c     LIBCMT:winapinls.obj
 0002:00003a58       ??_C@_1M@HOIKODND@?$AAd?$AAe?$AA?9?$AAL?$AAU?$AA?$AA@ 10017a58     LIBCMT:winapinls.obj
 0002:00003a64       ??_C@_1M@DDOCCGFG@?$AAe?$AAn?$AA?9?$AAC?$AAA?$AA?$AA@ 10017a64     LIBCMT:winapinls.obj
 0002:00003a70       ??_C@_1M@BNOEMJLF@?$AAe?$AAs?$AA?9?$AAG?$AAT?$AA?$AA@ 10017a70     LIBCMT:winapinls.obj
 0002:00003a7c       ??_C@_1M@EOGNKEK@?$AAf?$AAr?$AA?9?$AAC?$AAH?$AA?$AA@ 10017a7c     LIBCMT:winapinls.obj
 0002:00003a88       ??_C@_1M@FLIDJFHL@?$AAh?$AAr?$AA?9?$AAB?$AAA?$AA?$AA@ 10017a88     LIBCMT:winapinls.obj
 0002:00003a94       ??_C@_1O@FMCELNAJ@?$AAs?$AAm?$AAj?$AA?9?$AAN?$AAO?$AA?$AA@ 10017a94     LIBCMT:winapinls.obj
 0002:00003aa4       ??_C@_1M@JHGLJMGJ@?$AAa?$AAr?$AA?9?$AAD?$AAZ?$AA?$AA@ 10017aa4     LIBCMT:winapinls.obj
 0002:00003ab0       ??_C@_1M@JKKFDCNP@?$AAz?$AAh?$AA?9?$AAM?$AAO?$AA?$AA@ 10017ab0     LIBCMT:winapinls.obj
 0002:00003abc       ??_C@_1M@GEEFALPE@?$AAd?$AAe?$AA?9?$AAL?$AAI?$AA?$AA@ 10017abc     LIBCMT:winapinls.obj
 0002:00003ac8       ??_C@_1M@IGEOFBG@?$AAe?$AAn?$AA?9?$AAN?$AAZ?$AA?$AA@ 10017ac8     LIBCMT:winapinls.obj
 0002:00003ad4       ??_C@_1M@KDBONEHP@?$AAe?$AAs?$AA?9?$AAC?$AAR?$AA?$AA@ 10017ad4     LIBCMT:winapinls.obj
 0002:00003ae0       ??_C@_1M@FHMDOHNN@?$AAf?$AAr?$AA?9?$AAL?$AAU?$AA?$AA@ 10017ae0     LIBCMT:winapinls.obj
 0002:00003aec       ??_C@_1BG@NFKKMAFG@?$AAb?$AAs?$AA?9?$AAB?$AAA?$AA?9?$AAL?$AAa?$AAt?$AAn?$AA?$AA@ 10017aec     LIBCMT:winapinls.obj
 0002:00003b04       ??_C@_1O@IMNBEMCI@?$AAs?$AAm?$AAj?$AA?9?$AAS?$AAE?$AA?$AA@ 10017b04     LIBCMT:winapinls.obj
 0002:00003b14       ??_C@_1M@DHHMBNDP@?$AAa?$AAr?$AA?9?$AAM?$AAA?$AA?$AA@ 10017b14     LIBCMT:winapinls.obj
 0002:00003b20       ??_C@_1M@BNBLJCGH@?$AAe?$AAn?$AA?9?$AAI?$AAE?$AA?$AA@ 10017b20     LIBCMT:winapinls.obj
 0002:00003b2c       ??_C@_1M@GEPAFMDL@?$AAe?$AAs?$AA?9?$AAP?$AAA?$AA?$AA@ 10017b2c     LIBCMT:winapinls.obj
 0002:00003b38       ??_C@_1M@OJONDMDL@?$AAf?$AAr?$AA?9?$AAM?$AAC?$AA?$AA@ 10017b38     LIBCMT:winapinls.obj
 0002:00003b44       ??_C@_1BG@OBCNFJB@?$AAs?$AAr?$AA?9?$AAB?$AAA?$AA?9?$AAL?$AAa?$AAt?$AAn?$AA?$AA@ 10017b44     LIBCMT:winapinls.obj
 0002:00003b5c       ??_C@_1O@KEMEEGPO@?$AAs?$AAm?$AAa?$AA?9?$AAN?$AAO?$AA?$AA@ 10017b5c     LIBCMT:winapinls.obj
 0002:00003b6c       ??_C@_1M@ELMGFODK@?$AAa?$AAr?$AA?9?$AAT?$AAN?$AA?$AA@ 10017b6c     LIBCMT:winapinls.obj
 0002:00003b78       ??_C@_1M@BHDLHFAF@?$AAe?$AAn?$AA?9?$AAZ?$AAA?$AA?$AA@ 10017b78     LIBCMT:winapinls.obj
 0002:00003b84       ??_C@_1M@BMGIGLIF@?$AAe?$AAs?$AA?9?$AAD?$AAO?$AA?$AA@ 10017b84     LIBCMT:winapinls.obj
 0002:00003b90       ??_C@_1BG@CMBHIPBE@?$AAs?$AAr?$AA?9?$AAB?$AAA?$AA?9?$AAC?$AAy?$AAr?$AAl?$AA?$AA@ 10017b90     LIBCMT:winapinls.obj
 0002:00003ba8       ??_C@_1O@HEDBLHNP@?$AAs?$AAm?$AAa?$AA?9?$AAS?$AAE?$AA?$AA@ 10017ba8     LIBCMT:winapinls.obj
 0002:00003bb8       ??_C@_1M@DAGCADIM@?$AAa?$AAr?$AA?9?$AAO?$AAM?$AA?$AA@ 10017bb8     LIBCMT:winapinls.obj
 0002:00003bc4       ??_C@_1M@FODLMICG@?$AAe?$AAn?$AA?9?$AAJ?$AAM?$AA?$AA@ 10017bc4     LIBCMT:winapinls.obj
 0002:00003bd0       ??_C@_1M@DNMLCIHB@?$AAe?$AAs?$AA?9?$AAV?$AAE?$AA?$AA@ 10017bd0     LIBCMT:winapinls.obj
 0002:00003bdc       ??_C@_1O@EOKHMKJK@?$AAs?$AAm?$AAs?$AA?9?$AAF?$AAI?$AA?$AA@ 10017bdc     LIBCMT:winapinls.obj
 0002:00003bec       ??_C@_1M@CAFJMKOF@?$AAa?$AAr?$AA?9?$AAY?$AAE?$AA?$AA@ 10017bec     LIBCMT:winapinls.obj
 0002:00003bf8       ??_C@_1M@CBFHIJLI@?$AAe?$AAn?$AA?9?$AAC?$AAB?$AA?$AA@ 10017bf8     LIBCMT:winapinls.obj
 0002:00003c04       ??_C@_1M@BGNFLDN@?$AAe?$AAs?$AA?9?$AAC?$AAO?$AA?$AA@ 10017c04     LIBCMT:winapinls.obj
 0002:00003c10       ??_C@_1O@JMPHMAMC@?$AAs?$AAm?$AAn?$AA?9?$AAF?$AAI?$AA?$AA@ 10017c10     LIBCMT:winapinls.obj
 0002:00003c20       ??_C@_1M@JLANABKE@?$AAa?$AAr?$AA?9?$AAS?$AAY?$AA?$AA@ 10017c20     LIBCMT:winapinls.obj
 0002:00003c2c       ??_C@_1M@HPKGCFGN@?$AAe?$AAn?$AA?9?$AAB?$AAZ?$AA?$AA@ 10017c2c     LIBCMT:winapinls.obj
 0002:00003c38       ??_C@_1M@OLJCMLGM@?$AAe?$AAs?$AA?9?$AAP?$AAE?$AA?$AA@ 10017c38     LIBCMT:winapinls.obj
 0002:00003c44       ??_C@_1M@MKKGFKLE@?$AAa?$AAr?$AA?9?$AAJ?$AAO?$AA?$AA@ 10017c44     LIBCMT:winapinls.obj
 0002:00003c50       ??_C@_1M@EKPGLDNI@?$AAe?$AAn?$AA?9?$AAT?$AAT?$AA?$AA@ 10017c50     LIBCMT:winapinls.obj
 0002:00003c5c       ??_C@_1M@OONGHFHE@?$AAe?$AAs?$AA?9?$AAA?$AAR?$AA?$AA@ 10017c5c     LIBCMT:winapinls.obj
 0002:00003c68       ??_C@_1M@OOJFGBHE@?$AAa?$AAr?$AA?9?$AAL?$AAB?$AA?$AA@ 10017c68     LIBCMT:winapinls.obj
 0002:00003c74       ??_C@_1M@GCEJHNEG@?$AAe?$AAn?$AA?9?$AAZ?$AAW?$AA?$AA@ 10017c74     LIBCMT:winapinls.obj
 0002:00003c80       ??_C@_1M@JNOCAHJI@?$AAe?$AAs?$AA?9?$AAE?$AAC?$AA?$AA@ 10017c80     LIBCMT:winapinls.obj
 0002:00003c8c       ??_C@_1M@JEFHPGGB@?$AAa?$AAr?$AA?9?$AAK?$AAW?$AA?$AA@ 10017c8c     LIBCMT:winapinls.obj
 0002:00003c98       ??_C@_1M@MLKIBJOJ@?$AAe?$AAn?$AA?9?$AAP?$AAH?$AA?$AA@ 10017c98     LIBCMT:winapinls.obj
 0002:00003ca4       ??_C@_1M@BDNIPEND@?$AAe?$AAs?$AA?9?$AAC?$AAL?$AA?$AA@ 10017ca4     LIBCMT:winapinls.obj
 0002:00003cb0       ??_C@_1M@MPNMEKBD@?$AAa?$AAr?$AA?9?$AAA?$AAE?$AA?$AA@ 10017cb0     LIBCMT:winapinls.obj
 0002:00003cbc       ??_C@_1M@KBJALCPI@?$AAe?$AAs?$AA?9?$AAU?$AAY?$AA?$AA@ 10017cbc     LIBCMT:winapinls.obj
 0002:00003cc8       ??_C@_1M@LLCCOAGA@?$AAa?$AAr?$AA?9?$AAB?$AAH?$AA?$AA@ 10017cc8     LIBCMT:winapinls.obj
 0002:00003cd4       ??_C@_1M@PBFNCDEL@?$AAe?$AAs?$AA?9?$AAP?$AAY?$AA?$AA@ 10017cd4     LIBCMT:winapinls.obj
 0002:00003ce0       ??_C@_1M@EDGINPNP@?$AAa?$AAr?$AA?9?$AAQ?$AAA?$AA?$AA@ 10017ce0     LIBCMT:winapinls.obj
 0002:00003cec       ??_C@_1M@MKDBIIJI@?$AAe?$AAs?$AA?9?$AAB?$AAO?$AA?$AA@ 10017cec     LIBCMT:winapinls.obj
 0002:00003cf8       ??_C@_1M@CPKKEBLD@?$AAe?$AAs?$AA?9?$AAS?$AAV?$AA?$AA@ 10017cf8     LIBCMT:winapinls.obj
 0002:00003d04       ??_C@_1M@NDBGMMJL@?$AAe?$AAs?$AA?9?$AAH?$AAN?$AA?$AA@ 10017d04     LIBCMT:winapinls.obj
 0002:00003d10       ??_C@_1M@JIJIBHDP@?$AAe?$AAs?$AA?9?$AAN?$AAI?$AA?$AA@ 10017d10     LIBCMT:winapinls.obj
 0002:00003d1c       ??_C@_1M@CGFMKEEK@?$AAe?$AAs?$AA?9?$AAP?$AAR?$AA?$AA@ 10017d1c     LIBCMT:winapinls.obj
 0002:00003d28       ??_C@_1O@ICJHKIIK@?$AAz?$AAh?$AA?9?$AAC?$AAH?$AAT?$AA?$AA@ 10017d28     LIBCMT:winapinls.obj
 0002:00003d38       ??_C@_15CLNEJCE@?$AAs?$AAr?$AA?$AA@ 10017d38     LIBCMT:winapinls.obj
 0002:00003d40       ??_C@_1M@KAHEKEIG@?$AAa?$AAf?$AA?9?$AAz?$AAa?$AA?$AA@ 10017d40     LIBCMT:winapinls.obj
 0002:00003d4c       ??_C@_1M@GIECOABL@?$AAa?$AAr?$AA?9?$AAa?$AAe?$AA?$AA@ 10017d4c     LIBCMT:winapinls.obj
 0002:00003d58       ??_C@_1M@BMLMEKGI@?$AAa?$AAr?$AA?9?$AAb?$AAh?$AA?$AA@ 10017d58     LIBCMT:winapinls.obj
 0002:00003d64       ??_C@_1M@DAPFDGGB@?$AAa?$AAr?$AA?9?$AAd?$AAz?$AA?$AA@ 10017d64     LIBCMT:winapinls.obj
 0002:00003d70       ??_C@_1M@FJNKGKIG@?$AAa?$AAr?$AA?9?$AAe?$AAg?$AA?$AA@ 10017d70     LIBCMT:winapinls.obj
 0002:00003d7c       ??_C@_1M@FLGKKCLO@?$AAa?$AAr?$AA?9?$AAi?$AAq?$AA?$AA@ 10017d7c     LIBCMT:winapinls.obj
 0002:00003d88       ??_C@_1M@GNDIPALM@?$AAa?$AAr?$AA?9?$AAj?$AAo?$AA?$AA@ 10017d88     LIBCMT:winapinls.obj
 0002:00003d94       ??_C@_1M@DDMJFMGJ@?$AAa?$AAr?$AA?9?$AAk?$AAw?$AA?$AA@ 10017d94     LIBCMT:winapinls.obj
 0002:00003da0       ??_C@_1M@EJALMLHM@?$AAa?$AAr?$AA?9?$AAl?$AAb?$AA?$AA@ 10017da0     LIBCMT:winapinls.obj
 0002:00003dac       ??_C@_1M@MOBDBLOC@?$AAa?$AAr?$AA?9?$AAl?$AAy?$AA?$AA@ 10017dac     LIBCMT:winapinls.obj
 0002:00003db8       ??_C@_1M@JAOCLHDH@?$AAa?$AAr?$AA?9?$AAm?$AAa?$AA?$AA@ 10017db8     LIBCMT:winapinls.obj
 0002:00003dc4       ??_C@_1M@JHPMKJIE@?$AAa?$AAr?$AA?9?$AAo?$AAm?$AA?$AA@ 10017dc4     LIBCMT:winapinls.obj
 0002:00003dd0       ??_C@_1M@OEPGHFNH@?$AAa?$AAr?$AA?9?$AAq?$AAa?$AA?$AA@ 10017dd0     LIBCMT:winapinls.obj
 0002:00003ddc       ??_C@_1M@KJDONENM@?$AAa?$AAr?$AA?9?$AAs?$AAa?$AA?$AA@ 10017ddc     LIBCMT:winapinls.obj
 0002:00003de8       ??_C@_1M@DMJDKLKM@?$AAa?$AAr?$AA?9?$AAs?$AAy?$AA?$AA@ 10017de8     LIBCMT:winapinls.obj
 0002:00003df4       ??_C@_1M@OMFIPEDC@?$AAa?$AAr?$AA?9?$AAt?$AAn?$AA?$AA@ 10017df4     LIBCMT:winapinls.obj
 0002:00003e00       ??_C@_1M@IHMHGAON@?$AAa?$AAr?$AA?9?$AAy?$AAe?$AA?$AA@ 10017e00     LIBCMT:winapinls.obj
 0002:00003e0c       ??_C@_1BG@KDCPGJGB@?$AAa?$AAz?$AA?9?$AAa?$AAz?$AA?9?$AAc?$AAy?$AAr?$AAl?$AA?$AA@ 10017e0c     LIBCMT:winapinls.obj
 0002:00003e24       ??_C@_1BG@IBCKDDOE@?$AAa?$AAz?$AA?9?$AAa?$AAz?$AA?9?$AAl?$AAa?$AAt?$AAn?$AA?$AA@ 10017e24     LIBCMT:winapinls.obj
 0002:00003e3c       ??_C@_1M@EGPFDCPD@?$AAb?$AAe?$AA?9?$AAb?$AAy?$AA?$AA@ 10017e3c     LIBCMT:winapinls.obj
 0002:00003e48       ??_C@_1M@PCMGMCGC@?$AAb?$AAg?$AA?9?$AAb?$AAg?$AA?$AA@ 10017e48     LIBCMT:winapinls.obj
 0002:00003e54       ??_C@_1M@BJBMFGOB@?$AAb?$AAn?$AA?9?$AAi?$AAn?$AA?$AA@ 10017e54     LIBCMT:winapinls.obj
 0002:00003e60       ??_C@_1BG@EAKMMACD@?$AAb?$AAs?$AA?9?$AAb?$AAa?$AA?9?$AAl?$AAa?$AAt?$AAn?$AA?$AA@ 10017e60     LIBCMT:winapinls.obj
 0002:00003e78       ??_C@_1M@KGADAODK@?$AAc?$AAa?$AA?9?$AAe?$AAs?$AA?$AA@ 10017e78     LIBCMT:winapinls.obj
 0002:00003e84       ??_C@_1M@COAJPDHI@?$AAc?$AAs?$AA?9?$AAc?$AAz?$AA?$AA@ 10017e84     LIBCMT:winapinls.obj
 0002:00003e90       ??_C@_1M@DHBHFONH@?$AAc?$AAy?$AA?9?$AAg?$AAb?$AA?$AA@ 10017e90     LIBCMT:winapinls.obj
 0002:00003e9c       ??_C@_1M@IMGKELGA@?$AAd?$AAa?$AA?9?$AAd?$AAk?$AA?$AA@ 10017e9c     LIBCMT:winapinls.obj
 0002:00003ea8       ??_C@_1M@NNDGDNGA@?$AAd?$AAe?$AA?9?$AAa?$AAt?$AA?$AA@ 10017ea8     LIBCMT:winapinls.obj
 0002:00003eb4       ??_C@_1M@IKDBHEEM@?$AAd?$AAe?$AA?9?$AAc?$AAh?$AA?$AA@ 10017eb4     LIBCMT:winapinls.obj
 0002:00003ec0       ??_C@_1M@GFFOJMCJ@?$AAd?$AAe?$AA?9?$AAd?$AAe?$AA?$AA@ 10017ec0     LIBCMT:winapinls.obj
 0002:00003ecc       ??_C@_1M@MDNLKBPM@?$AAd?$AAe?$AA?9?$AAl?$AAi?$AA?$AA@ 10017ecc     LIBCMT:winapinls.obj
 0002:00003ed8       ??_C@_1M@NJBEEJNL@?$AAd?$AAe?$AA?9?$AAl?$AAu?$AA?$AA@ 10017ed8     LIBCMT:winapinls.obj
 0002:00003ee4       ??_C@_1O@GNNELBAP@?$AAd?$AAi?$AAv?$AA?9?$AAm?$AAv?$AA?$AA@ 10017ee4     LIBCMT:winapinls.obj
 0002:00003ef4       ??_C@_1M@EJLEOGAE@?$AAe?$AAl?$AA?9?$AAg?$AAr?$AA?$AA@ 10017ef4     LIBCMT:winapinls.obj
 0002:00003f00       ??_C@_1M@GMPONJN@?$AAe?$AAn?$AA?9?$AAa?$AAu?$AA?$AA@ 10017f00     LIBCMT:winapinls.obj
 0002:00003f0c       ??_C@_1M@NIDIIPGF@?$AAe?$AAn?$AA?9?$AAb?$AAz?$AA?$AA@ 10017f0c     LIBCMT:winapinls.obj
 0002:00003f18       ??_C@_1M@JEHMIMFO@?$AAe?$AAn?$AA?9?$AAc?$AAa?$AA?$AA@ 10017f18     LIBCMT:winapinls.obj
 0002:00003f24       ??_C@_1M@IGMJCDLA@?$AAe?$AAn?$AA?9?$AAc?$AAb?$AA?$AA@ 10017f24     LIBCMT:winapinls.obj
 0002:00003f30       ??_C@_1M@BNFIGBKG@?$AAe?$AAn?$AA?9?$AAg?$AAb?$AA?$AA@ 10017f30     LIBCMT:winapinls.obj
 0002:00003f3c       ??_C@_1M@LKIFDIGP@?$AAe?$AAn?$AA?9?$AAi?$AAe?$AA?$AA@ 10017f3c     LIBCMT:winapinls.obj
 0002:00003f48       ??_C@_1M@PJKFGCCO@?$AAe?$AAn?$AA?9?$AAj?$AAm?$AA?$AA@ 10017f48     LIBCMT:winapinls.obj
 0002:00003f54       ??_C@_1M@KPPKEPBO@?$AAe?$AAn?$AA?9?$AAn?$AAz?$AA?$AA@ 10017f54     LIBCMT:winapinls.obj
 0002:00003f60       ??_C@_1M@GMDGLDOB@?$AAe?$AAn?$AA?9?$AAp?$AAh?$AA?$AA@ 10017f60     LIBCMT:winapinls.obj
 0002:00003f6c       ??_C@_1M@ONGIBJNA@?$AAe?$AAn?$AA?9?$AAt?$AAt?$AA?$AA@ 10017f6c     LIBCMT:winapinls.obj
 0002:00003f78       ??_C@_1M@LLODPCMM@?$AAe?$AAn?$AA?9?$AAu?$AAs?$AA?$AA@ 10017f78     LIBCMT:winapinls.obj
 0002:00003f84       ??_C@_1M@LAKFNPAN@?$AAe?$AAn?$AA?9?$AAz?$AAa?$AA?$AA@ 10017f84     LIBCMT:winapinls.obj
 0002:00003f90       ??_C@_1M@MFNHNHEO@?$AAe?$AAn?$AA?9?$AAz?$AAw?$AA?$AA@ 10017f90     LIBCMT:winapinls.obj
 0002:00003f9c       ??_C@_1M@EJEINPHM@?$AAe?$AAs?$AA?9?$AAa?$AAr?$AA?$AA@ 10017f9c     LIBCMT:winapinls.obj
 0002:00003fa8       ??_C@_1M@GNKPCCJA@?$AAe?$AAs?$AA?9?$AAb?$AAo?$AA?$AA@ 10017fa8     LIBCMT:winapinls.obj
 0002:00003fb4       ??_C@_1M@LEEGFONL@?$AAe?$AAs?$AA?9?$AAc?$AAl?$AA?$AA@ 10017fb4     LIBCMT:winapinls.obj
 0002:00003fc0       ??_C@_1M@KGPDPBDF@?$AAe?$AAs?$AA?9?$AAc?$AAo?$AA?$AA@ 10017fc0     LIBCMT:winapinls.obj
 0002:00003fcc       ??_C@_1M@EIAHOHH@?$AAe?$AAs?$AA?9?$AAc?$AAr?$AA?$AA@ 10017fcc     LIBCMT:winapinls.obj
 0002:00003fd8       ??_C@_1M@LLPGMBIN@?$AAe?$AAs?$AA?9?$AAd?$AAo?$AA?$AA@ 10017fd8     LIBCMT:winapinls.obj
 0002:00003fe4       ??_C@_1M@DKHMKNJA@?$AAe?$AAs?$AA?9?$AAe?$AAc?$AA?$AA@ 10017fe4     LIBCMT:winapinls.obj
 0002:00003ff0       ??_C@_1M@GKGFPKAP@?$AAe?$AAs?$AA?9?$AAe?$AAs?$AA?$AA@ 10017ff0     LIBCMT:winapinls.obj
 0002:00003ffc       ??_C@_1M@LKHKGDLN@?$AAe?$AAs?$AA?9?$AAg?$AAt?$AA?$AA@ 10017ffc     LIBCMT:winapinls.obj
 0002:00004008       ??_C@_1M@HEIIGGJD@?$AAe?$AAs?$AA?9?$AAh?$AAn?$AA?$AA@ 10018008     LIBCMT:winapinls.obj
 0002:00004014       ??_C@_1M@FBDHPPGD@?$AAe?$AAs?$AA?9?$AAm?$AAx?$AA?$AA@ 10018014     LIBCMT:winapinls.obj
 0002:00004020       ??_C@_1M@DPAGLNDH@?$AAe?$AAs?$AA?9?$AAn?$AAi?$AA?$AA@ 10018020     LIBCMT:winapinls.obj
 0002:0000402c       ??_C@_1M@MDGOPGDD@?$AAe?$AAs?$AA?9?$AAp?$AAa?$AA?$AA@ 1001802c     LIBCMT:winapinls.obj
 0002:00004038       ??_C@_1M@EMAMGBGE@?$AAe?$AAs?$AA?9?$AAp?$AAe?$AA?$AA@ 10018038     LIBCMT:winapinls.obj
 0002:00004044       ??_C@_1M@IBMCAOEC@?$AAe?$AAs?$AA?9?$AAp?$AAr?$AA?$AA@ 10018044     LIBCMT:winapinls.obj
 0002:00004050       ??_C@_1M@FGMDIJED@?$AAe?$AAs?$AA?9?$AAp?$AAy?$AA?$AA@ 10018050     LIBCMT:winapinls.obj
 0002:0000405c       ??_C@_1M@IIDEOLLL@?$AAe?$AAs?$AA?9?$AAs?$AAv?$AA?$AA@ 1001805c     LIBCMT:winapinls.obj
 0002:00004068       ??_C@_1M@GAOBIPA@?$AAe?$AAs?$AA?9?$AAu?$AAy?$AA?$AA@ 10018068     LIBCMT:winapinls.obj
 0002:00004074       ??_C@_1M@JKFFICHJ@?$AAe?$AAs?$AA?9?$AAv?$AAe?$AA?$AA@ 10018074     LIBCMT:winapinls.obj
 0002:00004080       ??_C@_1M@PNMLOJDF@?$AAe?$AAt?$AA?9?$AAe?$AAe?$AA?$AA@ 10018080     LIBCMT:winapinls.obj
 0002:0000408c       ??_C@_1M@GHHLIKEI@?$AAe?$AAu?$AA?9?$AAe?$AAs?$AA?$AA@ 1001808c     LIBCMT:winapinls.obj
 0002:00004098       ??_C@_1M@PBNONODE@?$AAf?$AAa?$AA?9?$AAi?$AAr?$AA?$AA@ 10018098     LIBCMT:winapinls.obj
 0002:000040a4       ??_C@_1M@JEEHPMIL@?$AAf?$AAi?$AA?9?$AAf?$AAi?$AA?$AA@ 100180a4     LIBCMT:winapinls.obj
 0002:000040b0       ??_C@_1M@LMDCNDBA@?$AAf?$AAo?$AA?9?$AAf?$AAo?$AA?$AA@ 100180b0     LIBCMT:winapinls.obj
 0002:000040bc       ??_C@_1M@JKEOHLDK@?$AAf?$AAr?$AA?9?$AAb?$AAe?$AA?$AA@ 100180bc     LIBCMT:winapinls.obj
 0002:000040c8       ??_C@_1M@NOHADPMI@?$AAf?$AAr?$AA?9?$AAc?$AAa?$AA?$AA@ 100180c8     LIBCMT:winapinls.obj
 0002:000040d4       ??_C@_1M@KDHIHAEC@?$AAf?$AAr?$AA?9?$AAc?$AAh?$AA?$AA@ 100180d4     LIBCMT:winapinls.obj
 0002:000040e0       ??_C@_1M@MMBBFGAK@?$AAf?$AAr?$AA?9?$AAf?$AAr?$AA?$AA@ 100180e0     LIBCMT:winapinls.obj
 0002:000040ec       ??_C@_1M@PAFNENNF@?$AAf?$AAr?$AA?9?$AAl?$AAu?$AA?$AA@ 100180ec     LIBCMT:winapinls.obj
 0002:000040f8       ??_C@_1M@EOHDJGDD@?$AAf?$AAr?$AA?9?$AAm?$AAc?$AA?$AA@ 100180f8     LIBCMT:winapinls.obj
 0002:00004104       ??_C@_1M@FAPLLOPF@?$AAg?$AAl?$AA?9?$AAe?$AAs?$AA?$AA@ 10018104     LIBCMT:winapinls.obj
 0002:00004110       ??_C@_1M@FOPBFLOO@?$AAg?$AAu?$AA?9?$AAi?$AAn?$AA?$AA@ 10018110     LIBCMT:winapinls.obj
 0002:0000411c       ??_C@_1M@KBMCINPM@?$AAh?$AAe?$AA?9?$AAi?$AAl?$AA?$AA@ 1001811c     LIBCMT:winapinls.obj
 0002:00004128       ??_C@_1M@BBPHKFPJ@?$AAh?$AAi?$AA?9?$AAi?$AAn?$AA?$AA@ 10018128     LIBCMT:winapinls.obj
 0002:00004134       ??_C@_1M@PMBNDPHD@?$AAh?$AAr?$AA?9?$AAb?$AAa?$AA?$AA@ 10018134     LIBCMT:winapinls.obj
 0002:00004140       ??_C@_1M@BPCKOEGE@?$AAh?$AAr?$AA?9?$AAh?$AAr?$AA?$AA@ 10018140     LIBCMT:winapinls.obj
 0002:0000414c       ??_C@_1M@GACBMHKE@?$AAh?$AAu?$AA?9?$AAh?$AAu?$AA?$AA@ 1001814c     LIBCMT:winapinls.obj
 0002:00004158       ??_C@_1M@MILPAJJC@?$AAh?$AAy?$AA?9?$AAa?$AAm?$AA?$AA@ 10018158     LIBCMT:winapinls.obj
 0002:00004164       ??_C@_1M@BABBICEC@?$AAi?$AAd?$AA?9?$AAi?$AAd?$AA?$AA@ 10018164     LIBCMT:winapinls.obj
 0002:00004170       ??_C@_1M@BIKNHHPF@?$AAi?$AAs?$AA?9?$AAi?$AAs?$AA?$AA@ 10018170     LIBCMT:winapinls.obj
 0002:0000417c       ??_C@_1M@NMPCJPHE@?$AAi?$AAt?$AA?9?$AAc?$AAh?$AA?$AA@ 1001817c     LIBCMT:winapinls.obj
 0002:00004188       ??_C@_1M@GHKGFEDF@?$AAi?$AAt?$AA?9?$AAi?$AAt?$AA?$AA@ 10018188     LIBCMT:winapinls.obj
 0002:00004194       ??_C@_1M@NIEJCJJA@?$AAj?$AAa?$AA?9?$AAj?$AAp?$AA?$AA@ 10018194     LIBCMT:winapinls.obj
 0002:000041a0       ??_C@_1M@JILFNBIM@?$AAk?$AAa?$AA?9?$AAg?$AAe?$AA?$AA@ 100181a0     LIBCMT:winapinls.obj
 0002:000041ac       ??_C@_1M@PACPMGPH@?$AAk?$AAk?$AA?9?$AAk?$AAz?$AA?$AA@ 100181ac     LIBCMT:winapinls.obj
 0002:000041b8       ??_C@_1M@IELFGMHA@?$AAk?$AAn?$AA?9?$AAi?$AAn?$AA?$AA@ 100181b8     LIBCMT:winapinls.obj
 0002:000041c4       ??_C@_1O@IBBJHCH@?$AAk?$AAo?$AAk?$AA?9?$AAi?$AAn?$AA?$AA@ 100181c4     LIBCMT:winapinls.obj
 0002:000041d4       ??_C@_1M@DMHAEOGC@?$AAk?$AAo?$AA?9?$AAk?$AAr?$AA?$AA@ 100181d4     LIBCMT:winapinls.obj
 0002:000041e0       ??_C@_1M@HBAHBIGA@?$AAk?$AAy?$AA?9?$AAk?$AAg?$AA?$AA@ 100181e0     LIBCMT:winapinls.obj
 0002:000041ec       ??_C@_1M@KPMILCJG@?$AAl?$AAt?$AA?9?$AAl?$AAt?$AA?$AA@ 100181ec     LIBCMT:winapinls.obj
 0002:000041f8       ??_C@_1M@BDEKKCA@?$AAl?$AAv?$AA?9?$AAl?$AAv?$AA?$AA@ 100181f8     LIBCMT:winapinls.obj
 0002:00004204       ??_C@_1M@ELCKCCJJ@?$AAm?$AAi?$AA?9?$AAn?$AAz?$AA?$AA@ 10018204     LIBCMT:winapinls.obj
 0002:00004210       ??_C@_1M@CBOOLAPA@?$AAm?$AAk?$AA?9?$AAm?$AAk?$AA?$AA@ 10018210     LIBCMT:winapinls.obj
 0002:0000421c       ??_C@_1M@GPHNBJKN@?$AAm?$AAl?$AA?9?$AAi?$AAn?$AA?$AA@ 1001821c     LIBCMT:winapinls.obj
 0002:00004228       ??_C@_1M@PABJILIG@?$AAm?$AAn?$AA?9?$AAm?$AAn?$AA?$AA@ 10018228     LIBCMT:winapinls.obj
 0002:00004234       ??_C@_1M@FGBKKIPG@?$AAm?$AAr?$AA?9?$AAi?$AAn?$AA?$AA@ 10018234     LIBCMT:winapinls.obj
 0002:00004240       ??_C@_1M@NDBPDDAL@?$AAm?$AAs?$AA?9?$AAb?$AAn?$AA?$AA@ 10018240     LIBCMT:winapinls.obj
 0002:0000424c       ??_C@_1M@OPIHOOPI@?$AAm?$AAs?$AA?9?$AAm?$AAy?$AA?$AA@ 1001824c     LIBCMT:winapinls.obj
 0002:00004258       ??_C@_1M@PPDBCNFM@?$AAm?$AAt?$AA?9?$AAm?$AAt?$AA?$AA@ 10018258     LIBCMT:winapinls.obj
 0002:00004264       ??_C@_1M@KDJDKMDD@?$AAn?$AAb?$AA?9?$AAn?$AAo?$AA?$AA@ 10018264     LIBCMT:winapinls.obj
 0002:00004270       ??_C@_1M@KFCFLMJP@?$AAn?$AAl?$AA?9?$AAb?$AAe?$AA?$AA@ 10018270     LIBCMT:winapinls.obj
 0002:0000427c       ??_C@_1M@KPOPDDGO@?$AAn?$AAl?$AA?9?$AAn?$AAl?$AA?$AA@ 1001827c     LIBCMT:winapinls.obj
 0002:00004288       ??_C@_1M@LJKPEMLN@?$AAn?$AAn?$AA?9?$AAn?$AAo?$AA?$AA@ 10018288     LIBCMT:winapinls.obj
 0002:00004294       ??_C@_1M@BDGHHBFL@?$AAn?$AAs?$AA?9?$AAz?$AAa?$AA?$AA@ 10018294     LIBCMT:winapinls.obj
 0002:000042a0       ??_C@_1M@IDEHOAP@?$AAp?$AAa?$AA?9?$AAi?$AAn?$AA?$AA@ 100182a0     LIBCMT:winapinls.obj
 0002:000042ac       ??_C@_1M@HDBKGOGH@?$AAp?$AAl?$AA?9?$AAp?$AAl?$AA?$AA@ 100182ac     LIBCMT:winapinls.obj
 0002:000042b8       ??_C@_1M@LJLLCMEH@?$AAp?$AAt?$AA?9?$AAb?$AAr?$AA?$AA@ 100182b8     LIBCMT:winapinls.obj
 0002:000042c4       ??_C@_1M@NCMONAAL@?$AAp?$AAt?$AA?9?$AAp?$AAt?$AA?$AA@ 100182c4     LIBCMT:winapinls.obj
 0002:000042d0       ??_C@_1O@EAKMAJDN@?$AAq?$AAu?$AAz?$AA?9?$AAb?$AAo?$AA?$AA@ 100182d0     LIBCMT:winapinls.obj
 0002:000042e0       ??_C@_1O@BHHPIGDN@?$AAq?$AAu?$AAz?$AA?9?$AAe?$AAc?$AA?$AA@ 100182e0     LIBCMT:winapinls.obj
 0002:000042f0       ??_C@_1O@GBAPEKMJ@?$AAq?$AAu?$AAz?$AA?9?$AAp?$AAe?$AA?$AA@ 100182f0     LIBCMT:winapinls.obj
 0002:00004300       ??_C@_1M@CLGLEFBO@?$AAr?$AAo?$AA?9?$AAr?$AAo?$AA?$AA@ 10018300     LIBCMT:winapinls.obj
 0002:0000430c       ??_C@_1M@CEEDODME@?$AAr?$AAu?$AA?9?$AAr?$AAu?$AA?$AA@ 1001830c     LIBCMT:winapinls.obj
 0002:00004318       ??_C@_1M@HPKKKMPP@?$AAs?$AAa?$AA?9?$AAi?$AAn?$AA?$AA@ 10018318     LIBCMT:winapinls.obj
 0002:00004324       ??_C@_1M@BKMAIGOJ@?$AAs?$AAe?$AA?9?$AAf?$AAi?$AA?$AA@ 10018324     LIBCMT:winapinls.obj
 0002:00004330       ??_C@_1M@NDPIFLFI@?$AAs?$AAe?$AA?9?$AAn?$AAo?$AA?$AA@ 10018330     LIBCMT:winapinls.obj
 0002:0000433c       ??_C@_1M@DANKKHJ@?$AAs?$AAe?$AA?9?$AAs?$AAe?$AA?$AA@ 1001833c     LIBCMT:winapinls.obj
 0002:00004348       ??_C@_1M@PNBLONPJ@?$AAs?$AAk?$AA?9?$AAs?$AAk?$AA?$AA@ 10018348     LIBCMT:winapinls.obj
 0002:00004354       ??_C@_1M@LFMODOAL@?$AAs?$AAl?$AA?9?$AAs?$AAi?$AA?$AA@ 10018354     LIBCMT:winapinls.obj
 0002:00004360       ??_C@_1O@DFKOMPG@?$AAs?$AAm?$AAa?$AA?9?$AAn?$AAo?$AA?$AA@ 10018360     LIBCMT:winapinls.obj
 0002:00004370       ??_C@_1O@NDKPBNNH@?$AAs?$AAm?$AAa?$AA?9?$AAs?$AAe?$AA?$AA@ 10018370     LIBCMT:winapinls.obj
 0002:00004380       ??_C@_1O@PLLKBHAB@?$AAs?$AAm?$AAj?$AA?9?$AAn?$AAo?$AA?$AA@ 10018380     LIBCMT:winapinls.obj
 0002:00004390       ??_C@_1O@CLEPOGCA@?$AAs?$AAm?$AAj?$AA?9?$AAs?$AAe?$AA?$AA@ 10018390     LIBCMT:winapinls.obj
 0002:000043a0       ??_C@_1O@DLGJGKMK@?$AAs?$AAm?$AAn?$AA?9?$AAf?$AAi?$AA?$AA@ 100183a0     LIBCMT:winapinls.obj
 0002:000043b0       ??_C@_1O@OJDJGAJC@?$AAs?$AAm?$AAs?$AA?9?$AAf?$AAi?$AA?$AA@ 100183b0     LIBCMT:winapinls.obj
 0002:000043c0       ??_C@_1M@BOFOGHPB@?$AAs?$AAq?$AA?9?$AAa?$AAl?$AA?$AA@ 100183c0     LIBCMT:winapinls.obj
 0002:000043cc       ??_C@_1BG@LJBBIPGB@?$AAs?$AAr?$AA?9?$AAb?$AAa?$AA?9?$AAc?$AAy?$AAr?$AAl?$AA?$AA@ 100183cc     LIBCMT:winapinls.obj
 0002:000043e4       ??_C@_1BG@JLBENFOE@?$AAs?$AAr?$AA?9?$AAb?$AAa?$AA?9?$AAl?$AAa?$AAt?$AAn?$AA?$AA@ 100183e4     LIBCMT:winapinls.obj
 0002:000043fc       ??_C@_1BG@KODPNHE@?$AAs?$AAr?$AA?9?$AAs?$AAp?$AA?9?$AAc?$AAy?$AAr?$AAl?$AA?$AA@ 100183fc     LIBCMT:winapinls.obj
 0002:00004414       ??_C@_1BG@CIOGKHPB@?$AAs?$AAr?$AA?9?$AAs?$AAp?$AA?9?$AAl?$AAa?$AAt?$AAn?$AA?$AA@ 10018414     LIBCMT:winapinls.obj
 0002:0000442c       ??_C@_1M@NGFJLMAC@?$AAs?$AAv?$AA?9?$AAf?$AAi?$AA?$AA@ 1001842c     LIBCMT:winapinls.obj
 0002:00004438       ??_C@_1M@MPJEJAJC@?$AAs?$AAv?$AA?9?$AAs?$AAe?$AA?$AA@ 10018438     LIBCMT:winapinls.obj
 0002:00004444       ??_C@_1M@MPNDHLFK@?$AAs?$AAw?$AA?9?$AAk?$AAe?$AA?$AA@ 10018444     LIBCMT:winapinls.obj
 0002:00004450       ??_C@_1O@KOHBJJI@?$AAs?$AAy?$AAr?$AA?9?$AAs?$AAy?$AA?$AA@ 10018450     LIBCMT:winapinls.obj
 0002:00004460       ??_C@_1M@LDCEFHA@?$AAt?$AAa?$AA?9?$AAi?$AAn?$AA?$AA@ 10018460     LIBCMT:winapinls.obj
 0002:0000446c       ??_C@_1M@CNJOFAK@?$AAt?$AAe?$AA?9?$AAi?$AAn?$AA?$AA@ 1001846c     LIBCMT:winapinls.obj
 0002:00004478       ??_C@_1M@GNAECACD@?$AAt?$AAh?$AA?9?$AAt?$AAh?$AA?$AA@ 10018478     LIBCMT:winapinls.obj
 0002:00004484       ??_C@_1M@CHBIHOJO@?$AAt?$AAn?$AA?9?$AAz?$AAa?$AA?$AA@ 10018484     LIBCMT:winapinls.obj
 0002:00004490       ??_C@_1M@GCCMIGPJ@?$AAt?$AAr?$AA?9?$AAt?$AAr?$AA?$AA@ 10018490     LIBCMT:winapinls.obj
 0002:0000449c       ??_C@_1M@CELMCNBK@?$AAt?$AAt?$AA?9?$AAr?$AAu?$AA?$AA@ 1001849c     LIBCMT:winapinls.obj
 0002:000044a8       ??_C@_1M@KLMCELGA@?$AAu?$AAk?$AA?9?$AAu?$AAa?$AA?$AA@ 100184a8     LIBCMT:winapinls.obj
 0002:000044b4       ??_C@_1M@EPAJJAJF@?$AAu?$AAr?$AA?9?$AAp?$AAk?$AA?$AA@ 100184b4     LIBCMT:winapinls.obj
 0002:000044c0       ??_C@_1BG@GEGPMCDJ@?$AAu?$AAz?$AA?9?$AAu?$AAz?$AA?9?$AAc?$AAy?$AAr?$AAl?$AA?$AA@ 100184c0     LIBCMT:winapinls.obj
 0002:000044d8       ??_C@_1BG@EGGKJILM@?$AAu?$AAz?$AA?9?$AAu?$AAz?$AA?9?$AAl?$AAa?$AAt?$AAn?$AA?$AA@ 100184d8     LIBCMT:winapinls.obj
 0002:000044f0       ??_C@_1M@GFOCLFF@?$AAv?$AAi?$AA?9?$AAv?$AAn?$AA?$AA@ 100184f0     LIBCMT:winapinls.obj
 0002:000044fc       ??_C@_1M@CPAMEDFI@?$AAx?$AAh?$AA?9?$AAz?$AAa?$AA?$AA@ 100184fc     LIBCMT:winapinls.obj
 0002:00004508       ??_C@_1O@EBKIFIGN@?$AAz?$AAh?$AA?9?$AAc?$AAh?$AAs?$AA?$AA@ 10018508     LIBCMT:winapinls.obj
 0002:00004518       ??_C@_1O@NMHPGANE@?$AAz?$AAh?$AA?9?$AAc?$AAh?$AAt?$AA?$AA@ 10018518     LIBCMT:winapinls.obj
 0002:00004528       ??_C@_1M@LPINJOMC@?$AAz?$AAh?$AA?9?$AAc?$AAn?$AA?$AA@ 10018528     LIBCMT:winapinls.obj
 0002:00004534       ??_C@_1M@OCJEJODD@?$AAz?$AAh?$AA?9?$AAh?$AAk?$AA?$AA@ 10018534     LIBCMT:winapinls.obj
 0002:00004540       ??_C@_1M@DNDLJINH@?$AAz?$AAh?$AA?9?$AAm?$AAo?$AA?$AA@ 10018540     LIBCMT:winapinls.obj
 0002:0000454c       ??_C@_1M@MBFDNDND@?$AAz?$AAh?$AA?9?$AAs?$AAg?$AA?$AA@ 1001854c     LIBCMT:winapinls.obj
 0002:00004558       ??_C@_1M@IMEPLEPE@?$AAz?$AAh?$AA?9?$AAt?$AAw?$AA?$AA@ 10018558     LIBCMT:winapinls.obj
 0002:00004564       ??_C@_1M@BBGHNHJP@?$AAz?$AAu?$AA?9?$AAz?$AAa?$AA?$AA@ 10018564     LIBCMT:winapinls.obj
 0002:00004570       __indefinite               10018570     LIBCMT:87disp.obj
 0002:0000457a       __piby2                    1001857a     LIBCMT:87disp.obj
 0002:000045a8       __DEFAULT_CW_in_mem        100185a8     LIBCMT:common.obj
 0002:000045aa       __pi_by_2_to_61            100185aa     LIBCMT:common.obj
 0002:000045e8       ___newctype                100185e8     LIBCMT:ctype.obj
 0002:000048e8       __wctype                   100188e8     LIBCMT:ctype.obj
 0002:00004af0       ___newclmap                10018af0     LIBCMT:ctype.obj
 0002:00004c70       ___newcumap                10018c70     LIBCMT:ctype.obj
 0002:00004df0       ___rg_language_count       10018df0     LIBCMT:getqloc.obj
 0002:00004df4       ___rg_country_count        10018df4     LIBCMT:getqloc.obj
 0002:00004f84       ??_C@_08EHJDFFNH@__based?$CI?$AA@ 10018f84     LIBCMT:undname.obj
 0002:00004f90       ??_C@_07KOLFKCDI@__cdecl?$AA@ 10018f90     LIBCMT:undname.obj
 0002:00004f98       ??_C@_08GHMPAG@__pascal?$AA@ 10018f98     LIBCMT:undname.obj
 0002:00004fa4       ??_C@_09IFJBGAPI@__stdcall?$AA@ 10018fa4     LIBCMT:undname.obj
 0002:00004fb0       ??_C@_0L@NPHFGOKO@__thiscall?$AA@ 10018fb0     LIBCMT:undname.obj
 0002:00004fbc       ??_C@_0L@JMKHOMEK@__fastcall?$AA@ 10018fbc     LIBCMT:undname.obj
 0002:00004fc8       ??_C@_0N@BCKKPABJ@__vectorcall?$AA@ 10018fc8     LIBCMT:undname.obj
 0002:00004fd8       ??_C@_09HIJEGCPM@__clrcall?$AA@ 10018fd8     LIBCMT:undname.obj
 0002:00004fe4       ??_C@_06GHPCKEAG@__eabi?$AA@ 10018fe4     LIBCMT:undname.obj
 0002:00004fec       ??_C@_07JOMMBBKO@__ptr64?$AA@ 10018fec     LIBCMT:undname.obj
 0002:00004ff4       ??_C@_0L@PILCLIHE@__restrict?$AA@ 10018ff4     LIBCMT:undname.obj
 0002:00005000       ??_C@_0M@GFIIJFMG@__unaligned?$AA@ 10019000     LIBCMT:undname.obj
 0002:0000500c       ??_C@_09DHDLOLLB@restrict?$CI?$AA@ 1001900c     LIBCMT:undname.obj
 0002:00005016       ??_C@_00CNPNBAHC@?$AA@     10019016     LIBCMT:undname.obj
 0002:00005018       ??_C@_04NIHEBCM@?5new?$AA@ 10019018     LIBCMT:undname.obj
 0002:00005020       ??_C@_07FPCDHGMM@?5delete?$AA@ 10019020     LIBCMT:undname.obj
 0002:00005028       ??_C@_01NEMOKFLO@?$DN?$AA@ 10019028     LIBCMT:undname.obj
 0002:0000502c       ??_C@_02GPIOPFAK@?$DO?$DO?$AA@ 1001902c     LIBCMT:undname.obj
 0002:00005030       ??_C@_02FODMEDOG@?$DM?$DM?$AA@ 10019030     LIBCMT:undname.obj
 0002:00005034       ??_C@_01DCLJPIOD@?$CB?$AA@ 10019034     LIBCMT:undname.obj
 0002:00005038       ??_C@_02EGOFBIJA@?$DN?$DN?$AA@ 10019038     LIBCMT:undname.obj
 0002:0000503c       ??_C@_02FDNJECIE@?$CB?$DN?$AA@ 1001903c     LIBCMT:undname.obj
 0002:00005040       ??_C@_02GPECMEKF@?$FL?$FN?$AA@ 10019040     LIBCMT:undname.obj
 0002:00005044       ??_C@_08LHJFAFGD@operator?$AA@ 10019044     LIBCMT:undname.obj
 0002:00005050       ??_C@_02HBOOOICD@?9?$DO?$AA@ 10019050     LIBCMT:undname.obj
 0002:00005054       ??_C@_01NBENCBCI@?$CK?$AA@ 10019054     LIBCMT:undname.obj
 0002:00005058       ??_C@_02ECNGHCIF@?$CL?$CL?$AA@ 10019058     LIBCMT:undname.obj
 0002:0000505c       ??_C@_02BAABKJLB@?9?9?$AA@ 1001905c     LIBCMT:undname.obj
 0002:00005060       ??_C@_01JOAMLHOP@?9?$AA@   10019060     LIBCMT:undname.obj
 0002:00005064       ??_C@_01MIFGBAGJ@?$CL?$AA@ 10019064     LIBCMT:undname.obj
 0002:00005068       ??_C@_01HNPIGOCE@?$CG?$AA@ 10019068     LIBCMT:undname.obj
 0002:0000506c       ??_C@_03MNHNFDLC@?9?$DO?$CK?$AA@ 1001906c     LIBCMT:undname.obj
 0002:00005070       ??_C@_01KMDKNFGN@?1?$AA@   10019070     LIBCMT:undname.obj
 0002:00005074       ??_C@_01FGNFDNOH@?$CF?$AA@ 10019074     LIBCMT:undname.obj
 0002:00005078       ??_C@_01MNNFJEPP@?$DM?$AA@ 10019078     LIBCMT:undname.obj
 0002:0000507c       ??_C@_02EHCHHCKH@?$DM?$DN?$AA@ 1001907c     LIBCMT:undname.obj
 0002:00005080       ??_C@_01PPODPGHN@?$DO?$AA@ 10019080     LIBCMT:undname.obj
 0002:00005084       ??_C@_02EEKDKGMJ@?$DO?$DN?$AA@ 10019084     LIBCMT:undname.obj
 0002:00005088       ??_C@_01IHBHIGKO@?0?$AA@   10019088     LIBCMT:undname.obj
 0002:0000508c       ??_C@_02HCKGKOFO@?$CI?$CJ?$AA@ 1001908c     LIBCMT:undname.obj
 0002:00005090       ??_C@_01PJKLJHI@?$HO?$AA@  10019090     LIBCMT:undname.obj
 0002:00005094       ??_C@_01JKBOJNNK@?$FO?$AA@ 10019094     LIBCMT:undname.obj
 0002:00005098       ??_C@_01DNKMNLPK@?$HM?$AA@ 10019098     LIBCMT:undname.obj
 0002:0000509c       ??_C@_02PPKAJPJL@?$CG?$CG?$AA@ 1001909c     LIBCMT:undname.obj
 0002:000050a0       ??_C@_02NONPIBCD@?$HM?$HM?$AA@ 100190a0     LIBCMT:undname.obj
 0002:000050a4       ??_C@_02FPIMKNGF@?$CK?$DN?$AA@ 100190a4     LIBCMT:undname.obj
 0002:000050a8       ??_C@_02FOEOMHFC@?$CL?$DN?$AA@ 100190a8     LIBCMT:undname.obj
 0002:000050ac       ??_C@_02FKMDLLOA@?9?$DN?$AA@ 100190ac     LIBCMT:undname.obj
 0002:000050b0       ??_C@_02FJEHGPIO@?1?$DN?$AA@ 100190b0     LIBCMT:undname.obj
 0002:000050b4       ??_C@_02FENAOKFI@?$CF?$DN?$AA@ 100190b4     LIBCMT:undname.obj
 0002:000050b8       ??_C@_03IKFCCPFF@?$DO?$DO?$DN?$AA@ 100190b8     LIBCMT:undname.obj
 0002:000050bc       ??_C@_03CDNPDDLA@?$DM?$DM?$DN?$AA@ 100190bc     LIBCMT:undname.obj
 0002:000050c0       ??_C@_02FGJGFEAB@?$CG?$DN?$AA@ 100190c0     LIBCMT:undname.obj
 0002:000050c4       ??_C@_02DHLNPPGH@?$HM?$DN?$AA@ 100190c4     LIBCMT:undname.obj
 0002:000050c8       ??_C@_02MHEGNOJ@?$FO?$DN?$AA@ 100190c8     LIBCMT:undname.obj
 0002:000050cc       ??_C@_09IFPLHPGF@?$GAvftable?8?$AA@ 100190cc     LIBCMT:undname.obj
 0002:000050d8       ??_C@_09BLBHBJP@?$GAvbtable?8?$AA@ 100190d8     LIBCMT:undname.obj
 0002:000050e4       ??_C@_07FEEIOKP@?$GAvcall?8?$AA@ 100190e4     LIBCMT:undname.obj
 0002:000050ec       ??_C@_08LLFFHHDJ@?$GAtypeof?8?$AA@ 100190ec     LIBCMT:undname.obj
 0002:000050f8       ??_C@_0BF@KDPPACIK@?$GAlocal?5static?5guard?8?$AA@ 100190f8     LIBCMT:undname.obj
 0002:00005110       ??_C@_08OBABFOLI@?$GAstring?8?$AA@ 10019110     LIBCMT:undname.obj
 0002:0000511c       ??_C@_0BD@JDLKDPAB@?$GAvbase?5destructor?8?$AA@ 1001911c     LIBCMT:undname.obj
 0002:00005130       ??_C@_0BN@DEGPLNFK@?$GAvector?5deleting?5destructor?8?$AA@ 10019130     LIBCMT:undname.obj
 0002:00005150       ??_C@_0BO@OBMKPJIG@?$GAdefault?5constructor?5closure?8?$AA@ 10019150     LIBCMT:undname.obj
 0002:00005170       ??_C@_0BN@IMDCHIKM@?$GAscalar?5deleting?5destructor?8?$AA@ 10019170     LIBCMT:undname.obj
 0002:00005190       ??_C@_0BO@PFGOCPJJ@?$GAvector?5constructor?5iterator?8?$AA@ 10019190     LIBCMT:undname.obj
 0002:000051b0       ??_C@_0BN@LFPFMEDL@?$GAvector?5destructor?5iterator?8?$AA@ 100191b0     LIBCMT:undname.obj
 0002:000051d0       ??_C@_0CE@IKBNEHA@?$GAvector?5vbase?5constructor?5iterat@ 100191d0     LIBCMT:undname.obj
 0002:000051f4       ??_C@_0BL@NILFHHPC@?$GAvirtual?5displacement?5map?8?$AA@ 100191f4     LIBCMT:undname.obj
 0002:00005210       ??_C@_0CB@JONCMFFK@?$GAeh?5vector?5constructor?5iterator?8@ 10019210     LIBCMT:undname.obj
 0002:00005234       ??_C@_0CA@GCEOPDGL@?$GAeh?5vector?5destructor?5iterator?8?$AA@ 10019234     LIBCMT:undname.obj
 0002:00005254       ??_C@_0CH@OOJPLCPH@?$GAeh?5vector?5vbase?5constructor?5ite@ 10019254     LIBCMT:undname.obj
 0002:0000527c       ??_C@_0BL@LLKPOHJI@?$GAcopy?5constructor?5closure?8?$AA@ 1001927c     LIBCMT:undname.obj
 0002:00005298       ??_C@_0BA@KBCDOMBN@?$GAudt?5returning?8?$AA@ 10019298     LIBCMT:undname.obj
 0002:000052a8       ??_C@_03KLGMFNMG@?$GAEH?$AA@ 100192a8     LIBCMT:undname.obj
 0002:000052ac       ??_C@_05KHLCHHI@?$GARTTI?$AA@ 100192ac     LIBCMT:undname.obj
 0002:000052b4       ??_C@_0BA@KKLDJDLB@?$GAlocal?5vftable?8?$AA@ 100192b4     LIBCMT:undname.obj
 0002:000052c4       ??_C@_0CE@IIHCMGGL@?$GAlocal?5vftable?5constructor?5closu@ 100192c4     LIBCMT:undname.obj
 0002:000052e8       ??_C@_06FHBGPFGH@?5new?$FL?$FN?$AA@ 100192e8     LIBCMT:undname.obj
 0002:000052f0       ??_C@_09LBNFPBCA@?5delete?$FL?$FN?$AA@ 100192f0     LIBCMT:undname.obj
 0002:000052fc       ??_C@_0P@HJKNJFNN@?$GAomni?5callsig?8?$AA@ 100192fc     LIBCMT:undname.obj
 0002:0000530c       ??_C@_0BL@CNOONJFP@?$GAplacement?5delete?5closure?8?$AA@ 1001930c     LIBCMT:undname.obj
 0002:00005328       ??_C@_0BN@CKNJLHMB@?$GAplacement?5delete?$FL?$FN?5closure?8?$AA@ 10019328     LIBCMT:undname.obj
 0002:00005348       ??_C@_0CG@CFDHKGGD@?$GAmanaged?5vector?5constructor?5iter@ 10019348     LIBCMT:undname.obj
 0002:00005370       ??_C@_0CF@IMGKMJNO@?$GAmanaged?5vector?5destructor?5itera@ 10019370     LIBCMT:undname.obj
 0002:00005398       ??_C@_0CG@HLDDJMAG@?$GAeh?5vector?5copy?5constructor?5iter@ 10019398     LIBCMT:undname.obj
 0002:000053c0       ??_C@_0CM@FCBBDIGB@?$GAeh?5vector?5vbase?5copy?5constructo@ 100193c0     LIBCMT:undname.obj
 0002:000053ec       ??_C@_0BL@CLIPGLGB@?$GAdynamic?5initializer?5for?5?8?$AA@ 100193ec     LIBCMT:undname.obj
 0002:00005408       ??_C@_0CB@PDBIFEP@?$GAdynamic?5atexit?5destructor?5for?5?8@ 10019408     LIBCMT:undname.obj
 0002:0000542c       ??_C@_0CD@CGAJBKEJ@?$GAvector?5copy?5constructor?5iterato@ 1001942c     LIBCMT:undname.obj
 0002:00005450       ??_C@_0CJ@GJELGAMM@?$GAvector?5vbase?5copy?5constructor?5i@ 10019450     LIBCMT:undname.obj
 0002:0000547c       ??_C@_0CL@FGIJHLCE@?$GAmanaged?5vector?5copy?5constructor@ 1001947c     LIBCMT:undname.obj
 0002:000054a8       ??_C@_0BM@PMGGMLDN@?$GAlocal?5static?5thread?5guard?8?$AA@ 100194a8     LIBCMT:undname.obj
 0002:000054c4       ??_C@_0BC@DAFEJGAK@?5Type?5Descriptor?8?$AA@ 100194c4     LIBCMT:undname.obj
 0002:000054d8       ??_C@_0BM@LDKODKLH@?5Base?5Class?5Descriptor?5at?5?$CI?$AA@ 100194d8     LIBCMT:undname.obj
 0002:000054f4       ??_C@_0BD@LGICGFMM@?5Base?5Class?5Array?8?$AA@ 100194f4     LIBCMT:undname.obj
 0002:00005508       ??_C@_0BN@MECKDCOJ@?5Class?5Hierarchy?5Descriptor?8?$AA@ 10019508     LIBCMT:undname.obj
 0002:00005528       ??_C@_0BK@CFCOFLF@?5Complete?5Object?5Locator?8?$AA@ 10019528     LIBCMT:undname.obj
 0002:00005544       ??_C@_06OJHGLDPL@?$CInull?$CJ?$AA@ 10019544     LIBCMT:output.obj
 0002:0000554c       ??_C@_1O@CEDCILHN@?$AA?$CI?$AAn?$AAu?$AAl?$AAl?$AA?$CJ?$AA?$AA@ 1001954c     LIBCMT:output.obj
 0002:00005560       ___lookuptable             10019560     LIBCMT:output.obj
 0002:000055c0       ___lookuptable_s           100195c0     LIBCMT:outputs.obj
 0002:0000561c       ??_C@_06PGGFOGJG@1?$CDSNAN?$AA@ 1001961c     LIBCMT:x10fout.obj
 0002:00005624       ??_C@_05PHHOCPM@1?$CDIND?$AA@ 10019624     LIBCMT:x10fout.obj
 0002:0000562c       ??_C@_05DNEBIAHO@1?$CDINF?$AA@ 1001962c     LIBCMT:x10fout.obj
 0002:00005634       ??_C@_06IMKFLFPG@1?$CDQNAN?$AA@ 10019634     LIBCMT:x10fout.obj
 0002:0000563c       ??_C@_1BA@BALFACEM@?$AAC?$AAO?$AAN?$AAO?$AAU?$AAT?$AA$?$AA?$AA@ 1001963c     LIBCMT:initcon.obj
 0002:0000564c       ??_C@_0BA@JFNIOLAK@string?5too?5long?$AA@ 1001964c     binding.obj
 0002:00005660       ??_C@_1GM@HIPDIFBC@?$AAC?$AA?3?$AA?2?$AAS?$AAa?$AAn?$AAd?$AAe?$AAs?$AAh?$AA?2?$AAP?$AAr?$AAo?$AAj?$AAe?$AAc?$AAt?$AAs?$AA?2?$AAh?$AAa?$AAp?$AAi?$AA_?$AAm?$AAo?$AAn?$AAg?$AAo?$AA?2?$AAn@ 10019660     binding.obj
 0002:000056d0       ??_C@_1FM@LOELJOFK@?$AAs?$AAi?$AAz?$AAe?$AA?5?$AA?$DM?$AA?$DN?$AA?5?$AAi?$AAm?$AAp?$AA?3?$AA?3?$AAk?$AAM?$AAa?$AAx?$AAL?$AAe?$AAn?$AAg?$AAt?$AAh?$AA?5?$AA?$CG?$AA?$CG?$AA?5?$AA?$CC?$AAt?$AAo?$AAo?$AA?5@ 100196d0     binding.obj
 0002:0000572c       ??_C@_0O@LEDLFADM@Invalid?5input?$AA@ 1001972c     binding.obj
 0002:0000573c       ??_C@_08KDGACIGK@asBuffer?$AA@ 1001973c     binding.obj
 0002:00005748       ??_C@_08EJNPIMGB@compress?$AA@ 10019748     binding.obj
 0002:00005754       ??_C@_0N@HAINGCF@compressSync?$AA@ 10019754     binding.obj
 0002:00005764       ??_C@_0BC@BBJEGJCI@isValidCompressed?$AA@ 10019764     binding.obj
 0002:00005778       ??_C@_0BG@DIAAJMNB@isValidCompressedSync?$AA@ 10019778     binding.obj
 0002:00005790       ??_C@_0L@IEAKODFB@uncompress?$AA@ 10019790     binding.obj
 0002:0000579c       ??_C@_0P@KNDCCNMO@uncompressSync?$AA@ 1001979c     binding.obj
 0002:000057ac       ??_C@_0BC@OMDPIAIO@?4?4?2src?2binding?4cc?$AA@ 100197ac     binding.obj
 0002:000057c0       ??_C@_07GGKKJCAC@binding?$AA@ 100197c0     binding.obj
 0002:000057c8       ??_C@_0BI@CFPLBAOH@invalid?5string?5position?$AA@ 100197c8     binding.obj
 0002:000057e0       ??_7IsValidCompressedWorker@nodesnappy@@6B@ 100197e0     binding.obj
 0002:000057f8       ??_7AsyncWorker@Nan@@6B@   100197f8     binding.obj
 0002:00005810       ??_7CompressWorker@nodesnappy@@6B@ 10019810     binding.obj
 0002:00005828       ??_7UncompressWorker@nodesnappy@@6B@ 10019828     binding.obj
 0002:00005840       ??_C@_08HCOMDCCD@iojs?4exe?$AA@ 10019840     win_delay_load_hook.obj
 0002:0000584c       ??_C@_08JDDNMFDB@node?4exe?$AA@ 1001984c     win_delay_load_hook.obj
 0002:00005858       ??_C@_1MI@HIOBJOF@?$AAc?$AA?3?$AA?2?$AAs?$AAa?$AAn?$AAd?$AAe?$AAs?$AAh?$AA?2?$AAp?$AAr?$AAo?$AAj?$AAe?$AAc?$AAt?$AAs?$AA?2?$AAh?$AAa?$AAp?$AAi?$AA_?$AAm?$AAo?$AAn?$AAg?$AAo?$AA?2?$AAn@ 10019858     snappy:snappy.obj
 0002:00005920       ??_C@_1BG@GNOBELO@?$AAv?$AAa?$AAl?$AAu?$AAe?$AA?5?$AA?$DN?$AA?$DN?$AA?5?$AA1?$AA?$AA@ 10019920     snappy:snappy.obj
 0002:00005938       ??_C@_1LM@OFAMABDA@?$AAc?$AA?3?$AA?2?$AAs?$AAa?$AAn?$AAd?$AAe?$AAs?$AAh?$AA?2?$AAp?$AAr?$AAo?$AAj?$AAe?$AAc?$AAt?$AAs?$AA?2?$AAh?$AAa?$AAp?$AAi?$AA_?$AAm?$AAo?$AAn?$AAg?$AAo?$AA?2?$AAn@ 10019938     snappy:snappy.obj
 0002:000059f4       ??_C@_1BO@HOKEIBLG@?$AAs?$AA2?$AA_?$AAl?$AAi?$AAm?$AAi?$AAt?$AA?5?$AA?$DO?$AA?$DN?$AA?5?$AAs?$AA2?$AA?$AA@ 100199f4     snappy:snappy.obj
 0002:00005a18       ??_C@_1FI@KEJBHHIN@?$AA?4?$AA?4?$AA?2?$AA?4?$AA?4?$AA?2?$AA?4?$AA?4?$AA?2?$AAd?$AAe?$AAp?$AAs?$AA?2?$AAs?$AAn?$AAa?$AAp?$AAp?$AAy?$AA?2?$AAs?$AAn?$AAa?$AAp?$AAp?$AAy?$AA?9?$AA1?$AA?4?$AA1?$AA?4@ 10019a18     snappy:snappy.obj
 0002:00005a70       ??_C@_1BA@GMKHALLP@?$AAl?$AAe?$AAn?$AA?5?$AA?$DO?$AA?5?$AA0?$AA?$AA@ 10019a70     snappy:snappy.obj
 0002:00005a80       ??_C@_1BG@IHIONFJH@?$AAc?$AAo?$AAu?$AAn?$AAt?$AA?5?$AA?$DO?$AA?$DN?$AA?5?$AA1?$AA?$AA@ 10019a80     snappy:snappy.obj
 0002:00005a98       ??_C@_1BG@LEKFPFJI@?$AAc?$AAo?$AAu?$AAn?$AAt?$AA?5?$AA?$DM?$AA?$DN?$AA?5?$AA4?$AA?$AA@ 10019a98     snappy:snappy.obj
 0002:00005ab0       ??_C@_1BE@DLMJINK@?$AAl?$AAe?$AAn?$AA?5?$AA?$DM?$AA?$DN?$AA?5?$AA6?$AA4?$AA?$AA@ 10019ab0     snappy:snappy.obj
 0002:00005ac4       ??_C@_1BC@GPKOEOMP@?$AAl?$AAe?$AAn?$AA?5?$AA?$DO?$AA?$DN?$AA?5?$AA4?$AA?$AA@ 10019ac4     snappy:snappy.obj
 0002:00005ad8       ??_C@_1BO@PPEGDPPA@?$AAo?$AAf?$AAf?$AAs?$AAe?$AAt?$AA?5?$AA?$DM?$AA?5?$AA6?$AA5?$AA5?$AA3?$AA6?$AA?$AA@ 10019ad8     snappy:snappy.obj
 0002:00005af8       ??_C@_1CA@JFBFPAMB@?$AAl?$AAe?$AAn?$AA_?$AAm?$AAi?$AAn?$AAu?$AAs?$AA_?$AA4?$AA?5?$AA?$DM?$AA?5?$AA8?$AA?$AA@ 10019af8     snappy:snappy.obj
 0002:00005b18       ??_C@_1DC@OPGIIANN@?$AAi?$AAn?$AAp?$AAu?$AAt?$AA_?$AAs?$AAi?$AAz?$AAe?$AA?5?$AA?$DM?$AA?$DN?$AA?5?$AAk?$AAB?$AAl?$AAo?$AAc?$AAk?$AAS?$AAi?$AAz?$AAe?$AA?$AA@ 10019b18     snappy:snappy.obj
 0002:00005b50       ??_C@_1EK@FEBNOKCP@?$AA?$CI?$AAt?$AAa?$AAb?$AAl?$AAe?$AA_?$AAs?$AAi?$AAz?$AAe?$AA?5?$AA?$CG?$AA?5?$AA?$CI?$AAt?$AAa?$AAb?$AAl?$AAe?$AA_?$AAs?$AAi?$AAz?$AAe?$AA?5?$AA?9?$AA?5?$AA1?$AA?$CJ?$AA?$CJ?$AA?5@ 10019b50     snappy:snappy.obj
 0002:00005ba0       ??_C@_1HA@CGBFNEOD@?$AAs?$AAt?$AAa?$AAt?$AAi?$AAc?$AA_?$AAc?$AAa?$AAs?$AAt?$AA?$DM?$AAi?$AAn?$AAt?$AA?$DO?$AA?$CI?$AAk?$AAu?$AAi?$AAn?$AAt?$AA3?$AA2?$AAm?$AAa?$AAx?$AA?5?$AA?$DO?$AA?$DO?$AA?5?$AAs@ 10019ba0     snappy:snappy.obj
 0002:00005c10       ??_C@_1BO@POBPHOCK@?$AAn?$AAe?$AAx?$AAt?$AA_?$AAe?$AAm?$AAi?$AAt?$AA?5?$AA?$DM?$AA?5?$AAi?$AAp?$AA?$AA@ 10019c10     snappy:snappy.obj
 0002:00005c30       ??_C@_1DA@JPFPEEHF@?$AAh?$AAa?$AAs?$AAh?$AA?5?$AA?$DN?$AA?$DN?$AA?5?$AAH?$AAa?$AAs?$AAh?$AA?$CI?$AAi?$AAp?$AA?0?$AA?5?$AAs?$AAh?$AAi?$AAf?$AAt?$AA?$CJ?$AA?$AA@ 10019c30     snappy:snappy.obj
 0002:00005c60       ??_C@_1CK@LPFHJPBE@?$AAc?$AAa?$AAn?$AAd?$AAi?$AAd?$AAa?$AAt?$AAe?$AA?5?$AA?$DO?$AA?$DN?$AA?5?$AAb?$AAa?$AAs?$AAe?$AA_?$AAi?$AAp?$AA?$AA@ 10019c60     snappy:snappy.obj
 0002:00005c8c       ??_C@_1BO@NJGNGDBA@?$AAc?$AAa?$AAn?$AAd?$AAi?$AAd?$AAa?$AAt?$AAe?$AA?5?$AA?$DM?$AA?5?$AAi?$AAp?$AA?$AA@ 10019c8c     snappy:snappy.obj
 0002:00005cac       ??_C@_1DC@OIJJOGJB@?$AAn?$AAe?$AAx?$AAt?$AA_?$AAe?$AAm?$AAi?$AAt?$AA?5?$AA?$CL?$AA?5?$AA1?$AA6?$AA?5?$AA?$DM?$AA?$DN?$AA?5?$AAi?$AAp?$AA_?$AAe?$AAn?$AAd?$AA?$AA@ 10019cac     snappy:snappy.obj
 0002:00005ce0       ??_C@_1EM@HJJPEPBA@?$AA0?$AA?5?$AA?$DN?$AA?$DN?$AA?5?$AAm?$AAe?$AAm?$AAc?$AAm?$AAp?$AA?$CI?$AAb?$AAa?$AAs?$AAe?$AA?0?$AA?5?$AAc?$AAa?$AAn?$AAd?$AAi?$AAd?$AAa?$AAt?$AAe?$AA?0?$AA?5?$AAm?$AAa?$AAt@ 10019ce0     snappy:snappy.obj
 0002:00005d2c       ??_C@_1BI@HPFPGA@?$AAi?$AAp?$AA_?$AA?5?$AA?$DN?$AA?$DN?$AA?5?$AAN?$AAU?$AAL?$AAL?$AA?$AA@ 10019d2c     snappy:snappy.obj
 0002:00005d44       ??_C@_1BO@NMEHIMPL@?$AAi?$AAp?$AA?5?$AA?$DM?$AA?5?$AAi?$AAp?$AA_?$AAl?$AAi?$AAm?$AAi?$AAt?$AA_?$AA?$AA@ 10019d44     snappy:snappy.obj
 0002:00005d64       ??_C@_1DG@CJMIIFFC@?$AAn?$AAe?$AAe?$AAd?$AAe?$AAd?$AA?5?$AA?$DM?$AA?$DN?$AA?5?$AAs?$AAi?$AAz?$AAe?$AAo?$AAf?$AA?$CI?$AAs?$AAc?$AAr?$AAa?$AAt?$AAc?$AAh?$AA_?$AA?$CJ?$AA?$AA@ 10019d64     snappy:snappy.obj
 0002:00005d9c       ??_C@_1BO@IALOIOFH@?$AAn?$AAb?$AAu?$AAf?$AA?5?$AA?$DN?$AA?$DN?$AA?5?$AAn?$AAe?$AAe?$AAd?$AAe?$AAd?$AA?$AA@ 10019d9c     snappy:snappy.obj
 0002:00005dbc       ??_C@_1CG@MOFADOEH@?$AAf?$AAr?$AAa?$AAg?$AAm?$AAe?$AAn?$AAt?$AA_?$AAs?$AAi?$AAz?$AAe?$AA?5?$AA?$CB?$AA?$DN?$AA?5?$AA0?$AA?$AA@ 10019dbc     snappy:snappy.obj
 0002:00005de4       ??_C@_1DE@GIPLEENC@?$AAb?$AAy?$AAt?$AAe?$AAs?$AA_?$AAr?$AAe?$AAa?$AAd?$AA?5?$AA?$DN?$AA?$DN?$AA?5?$AAn?$AAu?$AAm?$AA_?$AAt?$AAo?$AA_?$AAr?$AAe?$AAa?$AAd?$AA?$AA@ 10019de4     snappy:snappy.obj
 0002:00005e18       ??_C@_1BI@NKMBJCOD@?$AAo?$AAp?$AA?5?$AA?$DO?$AA?$DN?$AA?5?$AAb?$AAa?$AAs?$AAe?$AA_?$AA?$AA@ 10019e18     snappy:snappy.obj
 0002:00005e30       ??_C@_1CI@LJPILCOO@?$AAl?$AAi?$AAt?$AAe?$AAr?$AAa?$AAl?$AA_?$AAl?$AAe?$AAn?$AAg?$AAt?$AAh?$AA?5?$AA?$DM?$AA?5?$AA6?$AA1?$AA?$AA@ 10019e30     snappy:snappy.obj
 0002:00005e58       ??_7Source@snappy@@6B@     10019e58     snappy:snappy.obj
 0002:00005e68       ??_7Sink@snappy@@6B@       10019e68     snappy:snappy.obj
 0002:00005e74       ??_7UncheckedByteArraySink@snappy@@6B@ 10019e74     snappy:snappy.obj
 0002:00005e80       ??_7ByteArraySource@snappy@@6B@ 10019e80     snappy:snappy.obj
 0002:000060b0       __load_config_used         1001a0b0     LIBCMT:loadcfg.obj
 0002:00006174       ??_R1A@?0A@EA@exception@std@@8 1001a174     libcpmt:xthrow.obj
 0002:00006190       ??_R3exception@std@@8      1001a190     libcpmt:xthrow.obj
 0002:000061a0       ??_R2exception@std@@8      1001a1a0     libcpmt:xthrow.obj
 0002:000061a8       ??_R4bad_alloc@std@@6B@    1001a1a8     libcpmt:xthrow.obj
 0002:000061bc       ??_R3bad_alloc@std@@8      1001a1bc     libcpmt:xthrow.obj
 0002:000061cc       ??_R2bad_alloc@std@@8      1001a1cc     libcpmt:xthrow.obj
 0002:000061d8       ??_R1A@?0A@EA@bad_alloc@std@@8 1001a1d8     libcpmt:xthrow.obj
 0002:000061f4       ??_R4logic_error@std@@6B@  1001a1f4     libcpmt:xthrow.obj
 0002:00006208       ??_R3logic_error@std@@8    1001a208     libcpmt:xthrow.obj
 0002:00006218       ??_R2logic_error@std@@8    1001a218     libcpmt:xthrow.obj
 0002:00006224       ??_R1A@?0A@EA@logic_error@std@@8 1001a224     libcpmt:xthrow.obj
 0002:00006240       ??_R4length_error@std@@6B@ 1001a240     libcpmt:xthrow.obj
 0002:00006254       ??_R3length_error@std@@8   1001a254     libcpmt:xthrow.obj
 0002:00006264       ??_R2length_error@std@@8   1001a264     libcpmt:xthrow.obj
 0002:00006274       ??_R1A@?0A@EA@length_error@std@@8 1001a274     libcpmt:xthrow.obj
 0002:00006290       ??_R4out_of_range@std@@6B@ 1001a290     libcpmt:xthrow.obj
 0002:000062a4       ??_R3out_of_range@std@@8   1001a2a4     libcpmt:xthrow.obj
 0002:000062b4       ??_R2out_of_range@std@@8   1001a2b4     libcpmt:xthrow.obj
 0002:000062c4       ??_R1A@?0A@EA@out_of_range@std@@8 1001a2c4     libcpmt:xthrow.obj
 0002:000062e0       ??_R4type_info@@6B@        1001a2e0     LIBCMT:typinfo.obj
 0002:000062f4       ??_R3type_info@@8          1001a2f4     LIBCMT:typinfo.obj
 0002:00006304       ??_R2type_info@@8          1001a304     LIBCMT:typinfo.obj
 0002:0000630c       ??_R1A@?0A@EA@type_info@@8 1001a30c     LIBCMT:typinfo.obj
 0002:00006328       ??_R4exception@std@@6B@    1001a328     LIBCMT:stdexcpt.obj
 0002:0000633c       ??_R4bad_exception@std@@6B@ 1001a33c     LIBCMT:frame.obj
 0002:00006350       ??_R3bad_exception@std@@8  1001a350     LIBCMT:frame.obj
 0002:00006360       ??_R2bad_exception@std@@8  1001a360     LIBCMT:frame.obj
 0002:0000636c       ??_R1A@?0A@EA@bad_exception@std@@8 1001a36c     LIBCMT:frame.obj
 0002:00006390       ___safe_se_handler_table   1001a390     <linker-defined>
 0002:000063d4       ___rtc_iaa                 1001a3d4     LIBCMT:initsect.obj
 0002:000063d8       ___rtc_izz                 1001a3d8     LIBCMT:initsect.obj
 0002:000063dc       ___rtc_taa                 1001a3dc     LIBCMT:initsect.obj
 0002:000063e0       ___rtc_tzz                 1001a3e0     LIBCMT:initsect.obj
 0002:00006624       __TI2?AVbad_alloc@std@@    1001a624     libcpmt:xthrow.obj
 0002:00006634       __CTA2?AVbad_alloc@std@@   1001a634     libcpmt:xthrow.obj
 0002:00006640       __CT??_R0?AVbad_alloc@std@@@8??0bad_alloc@std@@QAE@ABV01@@Z12 1001a640     libcpmt:xthrow.obj
 0002:0000665c       __CT??_R0?AVexception@std@@@8??0exception@std@@QAE@ABV01@@Z12 1001a65c     libcpmt:xthrow.obj
 0002:00006678       __CT??_R0?AVlogic_error@std@@@8??0logic_error@std@@QAE@ABV01@@Z12 1001a678     libcpmt:xthrow.obj
 0002:00006694       __TI3?AVlength_error@std@@ 1001a694     libcpmt:xthrow.obj
 0002:000066a4       __CTA3?AVlength_error@std@@ 1001a6a4     libcpmt:xthrow.obj
 0002:000066b4       __CT??_R0?AVlength_error@std@@@8??0length_error@std@@QAE@ABV01@@Z12 1001a6b4     libcpmt:xthrow.obj
 0002:000066d0       __TI3?AVout_of_range@std@@ 1001a6d0     libcpmt:xthrow.obj
 0002:000066e0       __CTA3?AVout_of_range@std@@ 1001a6e0     libcpmt:xthrow.obj
 0002:000066f0       __CT??_R0?AVout_of_range@std@@@8??0out_of_range@std@@QAE@ABV01@@Z12 1001a6f0     libcpmt:xthrow.obj
 0002:00006a8c       __TI2?AVbad_exception@std@@ 1001aa8c     LIBCMT:frame.obj
 0002:00006a9c       __CTA2?AVbad_exception@std@@ 1001aa9c     LIBCMT:frame.obj
 0002:00006aa8       __CT??_R0?AVbad_exception@std@@@8??0bad_exception@std@@QAE@ABV01@@Z12 1001aaa8     LIBCMT:frame.obj
 0002:00006c04       __DELAY_IMPORT_DESCRIPTOR_node_exe 1001ac04     node:node.exe
 0002:00006c24       __NULL_DELAY_IMPORT_DESCRIPTOR 1001ac24     node:node.exe
 0002:00006cf4       \177node_NULL_THUNK_DATA_DLN 1001acf4     node:node.exe
 0002:00007814       \177node_NULL_THUNK_DATA_DLB 1001b814     node:node.exe
 0002:00007924       __IMPORT_DESCRIPTOR_KERNEL32 1001b924     kernel32:KERNEL32.dll
 0002:00007938       __NULL_IMPORT_DESCRIPTOR   1001b938     kernel32:KERNEL32.dll
 0003:00000060       __fltused                  1001c060     LIBCMT:fpinit.obj
 0003:00000064       __ldused                   1001c064     LIBCMT:fpinit.obj
 0003:00000068       ___security_cookie         1001c068     LIBCMT:gs_cookie.obj
 0003:0000006c       ___security_cookie_complement 1001c06c     LIBCMT:gs_cookie.obj
 0003:00000070       ___isa_enabled             1001c070     LIBCMT:cpu_disp.obj
 0003:00000074       ___abort_behavior          1001c074     LIBCMT:abort.obj
 0003:00000078       __iob                      1001c078     LIBCMT:_file.obj
 0003:00000308       __d_inf                    1001c308     LIBCMT:util.obj
 0003:00000310       __d_ind                    1001c310     LIBCMT:util.obj
 0003:00000318       __d_max                    1001c318     LIBCMT:util.obj
 0003:00000320       __d_min                    1001c320     LIBCMT:util.obj
 0003:00000328       __d_mzero                  1001c328     LIBCMT:util.obj
 0003:00000438       __mbctype                  1001c438     LIBCMT:mbctype.obj
 0003:00000540       __mbcasemap                1001c540     LIBCMT:mbctype.obj
 0003:00000640       ___initialmbcinfo          1001c640     LIBCMT:mbctype.obj
 0003:00000864       ___ptmbcinfo               1001c864     LIBCMT:mbctype.obj
 0003:00000958       ___flsindex                1001c958     LIBCMT:tidtable.obj
 0003:00000ad0       ___mb_cur_max              1001cad0     LIBCMT:nlsdata.obj
 0003:00000ad4       ___wclocalestr             1001cad4     LIBCMT:nlsdata.obj
 0003:00000ad8       ___lc_time_c               1001cad8     LIBCMT:nlsdata.obj
 0003:00000c3c       ___ptlocinfo               1001cc3c     LIBCMT:nlsdata.obj
 0003:00000c40       ___initiallocinfo          1001cc40     LIBCMT:nlsdata.obj
 0003:00000cf8       ___globallocalestatus      1001ccf8     LIBCMT:glstatus.obj
 0003:00000d00       ___badioinfo               1001cd00     LIBCMT:ioinit.obj
 0003:00000d50       __cfltcvt_tab              1001cd50     LIBCMT:cmiscdat.obj
 0003:00000ea0       __matherr_flag             1001cea0     LIBCMT:matherr.obj
 0003:00000ea8       ___lconv                   1001cea8     LIBCMT:lconv.obj
 0003:00000eac       ___lconv_static_decimal    1001ceac     LIBCMT:lconv.obj
 0003:00000eb0       ___lconv_c                 1001ceb0     LIBCMT:lconv.obj
 0003:00000f00       ___lconv_static_W_decimal  1001cf00     LIBCMT:lconv.obj
 0003:00000f04       __pctype                   1001cf04     LIBCMT:ctype.obj
 0003:00000f08       __pwctype                  1001cf08     LIBCMT:ctype.obj
 0003:00000f10       __NLG_Destination          1001cf10     LIBCMT:exsup.obj
 0003:00000f20       ___nullstring              1001cf20     LIBCMT:output.obj
 0003:00000f24       ___wnullstring             1001cf24     LIBCMT:output.obj
 0003:00000f60       __confh                    1001cf60     LIBCMT:initcon.obj
 0003:00000f68       __pow10pos                 1001cf68     LIBCMT:constpow.obj
 0003:000010c8       __pow10neg                 1001d0c8     LIBCMT:constpow.obj
 0003:00001230       __HUGE                     1001d230     LIBCMT:huge.obj
 0003:0000125c       ___pfnDliNotifyHook2       1001d25c     win_delay_load_hook.obj
 0003:00001260       ??_R0?AVbad_alloc@std@@@8  1001d260     libcpmt:xthrow.obj
 0003:0000127c       ??_R0?AVexception@std@@@8  1001d27c     libcpmt:xthrow.obj
 0003:00001298       ??_R0?AVlogic_error@std@@@8 1001d298     libcpmt:xthrow.obj
 0003:000012b8       ??_R0?AVlength_error@std@@@8 1001d2b8     libcpmt:xthrow.obj
 0003:000012d8       ??_R0?AVout_of_range@std@@@8 1001d2d8     libcpmt:xthrow.obj
 0003:000012f8       ??_R0?AVtype_info@@@8      1001d2f8     LIBCMT:typinfo.obj
 0003:00001310       ??_R0?AVbad_exception@std@@@8 1001d310     LIBCMT:frame.obj
 0003:00001330       __imp_?Length@Buffer@node@@YAIV?$Local@VObject@v8@@@v8@@@Z 1001d330     node:node.exe
 0003:00001334       __imp_?Data@Buffer@node@@YAPADV?$Local@VObject@v8@@@v8@@@Z 1001d334     node:node.exe
 0003:00001338       __imp_?HasInstance@Buffer@node@@YA_NV?$Local@VObject@v8@@@v8@@@Z 1001d338     node:node.exe
 0003:0000133c       __imp_?New@Buffer@node@@YA?AV?$MaybeLocal@VObject@v8@@@v8@@PAVIsolate@4@I@Z 1001d33c     node:node.exe
 0003:00001340       __imp__node_module_register 1001d340     node:node.exe
 0003:00001344       __imp_?MakeCallback@node@@YA?AV?$Local@VValue@v8@@@v8@@PAVIsolate@3@V?$Local@VObject@v8@@@3@V?$Local@VFunction@v8@@@3@HPAV23@@Z 1001d344     node:node.exe
 0003:00001348       __imp__uv_default_loop     1001d348     node:node.exe
 0003:0000134c       __imp_?Global@Context@v8@@QAE?AV?$Local@VObject@v8@@@2@XZ 1001d34c     node:node.exe
 0003:00001350       __imp_?ToLocalEmpty@V8@v8@@CAXXZ 1001d350     node:node.exe
 0003:00001354       __imp_?FromJustIsNothing@V8@v8@@CAXXZ 1001d354     node:node.exe
 0003:00001358       __imp_?DisposeGlobal@V8@v8@@CAXPAPAVObject@internal@2@@Z 1001d358     node:node.exe
 0003:0000135c       __imp_?GlobalizeReference@V8@v8@@CAPAPAVObject@internal@2@PAVIsolate@42@PAPAV342@@Z 1001d35c     node:node.exe
 0003:00001360       __imp_?Escape@EscapableHandleScope@v8@@AAEPAPAVObject@internal@2@PAPAV342@@Z 1001d360     node:node.exe
 0003:00001364       __imp_??0EscapableHandleScope@v8@@QAE@PAVIsolate@1@@Z 1001d364     node:node.exe
 0003:00001368       __imp_?BooleanValue@Value@v8@@QBE?AV?$Maybe@_N@2@V?$Local@VContext@v8@@@2@@Z 1001d368     node:node.exe
 0003:0000136c       __imp_?GetFunction@FunctionTemplate@v8@@QAE?AV?$MaybeLocal@VFunction@v8@@@2@V?$Local@VContext@v8@@@2@@Z 1001d36c     node:node.exe
 0003:00001370       __imp_?New@FunctionTemplate@v8@@SA?AV?$Local@VFunctionTemplate@v8@@@2@PAVIsolate@2@P6AXABV?$FunctionCallbackInfo@VValue@v8@@@2@@ZV?$Local@VValue@v8@@@2@V?$Local@VSignature@v8@@@2@H@Z 1001d370     node:node.exe
 0003:00001374       __imp_?Error@Exception@v8@@SA?AV?$Local@VValue@v8@@@2@V?$Local@VString@v8@@@2@@Z 1001d374     node:node.exe
 0003:00001378       __imp_??1Utf8Value@String@v8@@QAE@XZ 1001d378     node:node.exe
 0003:0000137c       __imp_??0Utf8Value@String@v8@@QAE@V?$Local@VValue@v8@@@2@@Z 1001d37c     node:node.exe
 0003:00001380       __imp_?NewFromUtf8@String@v8@@SA?AV?$MaybeLocal@VString@v8@@@2@PAVIsolate@2@PBDW4NewStringType@2@H@Z 1001d380     node:node.exe
 0003:00001384       __imp_?CreateHandle@HandleScope@v8@@KAPAPAVObject@internal@2@PAVIsolate@42@PAV342@@Z 1001d384     node:node.exe
 0003:00001388       __imp_?CreateHandle@HandleScope@v8@@CAPAPAVObject@internal@2@PAVHeapObject@42@PAV342@@Z 1001d388     node:node.exe
 0003:0000138c       __imp_??1HandleScope@v8@@QAE@XZ 1001d38c     node:node.exe
 0003:00001390       __imp_??0HandleScope@v8@@QAE@PAVIsolate@1@@Z 1001d390     node:node.exe
 0003:00001394       __imp_?SlowGetInternalField@Object@v8@@AAE?AV?$Local@VValue@v8@@@2@H@Z 1001d394     node:node.exe
 0003:00001398       __imp_?New@Object@v8@@SA?AV?$Local@VObject@v8@@@2@PAVIsolate@2@@Z 1001d398     node:node.exe
 0003:0000139c       __imp_?SetInternalField@Object@v8@@QAEXHV?$Local@VValue@v8@@@2@@Z 1001d39c     node:node.exe
 0003:000013a0       __imp_?Get@Object@v8@@QAE?AV?$MaybeLocal@VValue@v8@@@2@V?$Local@VContext@v8@@@2@V?$Local@VValue@v8@@@2@@Z 1001d3a0     node:node.exe
 0003:000013a4       __imp_?Get@Object@v8@@QAE?AV?$Local@VValue@v8@@@2@I@Z 1001d3a4     node:node.exe
 0003:000013a8       __imp_?Set@Object@v8@@QAE_NV?$Local@VValue@v8@@@2@0@Z 1001d3a8     node:node.exe
 0003:000013ac       __imp_?Set@Object@v8@@QAE?AV?$Maybe@_N@2@V?$Local@VContext@v8@@@2@IV?$Local@VValue@v8@@@2@@Z 1001d3ac     node:node.exe
 0003:000013b0       __imp_?SetInternalFieldCount@ObjectTemplate@v8@@QAEXH@Z 1001d3b0     node:node.exe
 0003:000013b4       __imp_?NewInstance@ObjectTemplate@v8@@QAE?AV?$MaybeLocal@VObject@v8@@@2@V?$Local@VContext@v8@@@2@@Z 1001d3b4     node:node.exe
 0003:000013b8       __imp_?New@ObjectTemplate@v8@@SA?AV?$Local@VObjectTemplate@v8@@@2@PAVIsolate@2@V?$Local@VFunctionTemplate@v8@@@2@@Z 1001d3b8     node:node.exe
 0003:000013bc       __imp_?SetName@Function@v8@@QAEXV?$Local@VString@v8@@@2@@Z 1001d3bc     node:node.exe
 0003:000013c0       __imp_?ThrowException@Isolate@v8@@QAE?AV?$Local@VValue@v8@@@2@V32@@Z 1001d3c0     node:node.exe
 0003:000013c4       __imp_?GetCurrentContext@Isolate@v8@@QAE?AV?$Local@VContext@v8@@@2@XZ 1001d3c4     node:node.exe
 0003:000013c8       __imp_?GetCurrent@Isolate@v8@@SAPAV12@XZ 1001d3c8     node:node.exe
 0003:000013cc       __imp_?Value@External@v8@@QBEPAXXZ 1001d3cc     node:node.exe
 0003:000013d0       __imp_?New@External@v8@@SA?AV?$Local@VExternal@v8@@@2@PAVIsolate@2@PAX@Z 1001d3d0     node:node.exe
 0003:000013d4       __imp__uv_queue_work       1001d3d4     node:node.exe
 0003:000013d8       __imp_?ToObject@Value@v8@@QBE?AV?$Local@VObject@v8@@@2@XZ 1001d3d8     node:node.exe
 0003:000013dc       __imp_?ToString@Value@v8@@QBE?AV?$Local@VString@v8@@@2@XZ 1001d3dc     node:node.exe
 0003:000013e0       \177node_NULL_THUNK_DATA_DLA 1001d3e0     node:node.exe
 0003:00001400       __hmod__node_exe           1001d400     node:node.exe
 0003:00001410       __aenvptr                  1001d410     LIBCMT:dllcrt0.obj
 0003:00001414       __wenvptr                  1001d414     LIBCMT:dllcrt0.obj
 0003:00001418       ___fastflag                1001d418     LIBCMT:fpinit.obj
 0003:00001740       ___isa_available           1001d740     LIBCMT:cpu_disp.obj
 0003:00001744       ___favor                   1001d744     LIBCMT:cpu_disp.obj
 0003:00001748       ___pInvalidArgHandler      1001d748     LIBCMT:invarg.obj
 0003:0000174c       __C_Exit_Done              1001d74c     LIBCMT:crt0dat.obj
 0003:00001750       ___argc                    1001d750     LIBCMT:crt0dat.obj
 0003:00001754       ___argv                    1001d754     LIBCMT:crt0dat.obj
 0003:00001758       ___wargv                   1001d758     LIBCMT:crt0dat.obj
 0003:0000175c       __environ                  1001d75c     LIBCMT:crt0dat.obj
 0003:00001760       __wenviron                 1001d760     LIBCMT:crt0dat.obj
 0003:00001764       __pgmptr                   1001d764     LIBCMT:crt0dat.obj
 0003:00001768       __wpgmptr                  1001d768     LIBCMT:crt0dat.obj
 0003:0000176c       __umaskval                 1001d76c     LIBCMT:crt0dat.obj
 0003:00001770       __exitflag                 1001d770     LIBCMT:crt0dat.obj
 0003:00001774       __C_Termination_Done       1001d774     LIBCMT:crt0dat.obj
 0003:00001778       ___winitenv                1001d778     LIBCMT:crt0dat.obj
 0003:0000177c       ___initenv                 1001d77c     LIBCMT:crt0dat.obj
 0003:00001780       ___error_mode              1001d780     LIBCMT:errmode.obj
 0003:00001784       __cflush                   1001d784     LIBCMT:_file.obj
 0003:000017b0       ___app_type                1001d7b0     LIBCMT:crt0msg.obj
 0003:00001de0       __maxwait                  1001dde0     LIBCMT:crtheap.obj
 0003:00001de4       ___pPurecall               1001dde4     LIBCMT:inithelp.obj
 0003:00001de8       ?_pnhHeap@@3P6AHI@ZA       1001dde8     LIBCMT:handler.obj
 0003:00001dec       ___mbcodepage              1001ddec     LIBCMT:mbctype.obj
 0003:00001df0       ___ismbcodepage            1001ddf0     LIBCMT:mbctype.obj
 0003:00001df4       ___mbulinfo                1001ddf4     LIBCMT:mbctype.obj
 0003:00001e00       ___mblocalename            1001de00     LIBCMT:mbctype.obj
 0003:00001e08       ___locale_changed          1001de08     LIBCMT:wsetloca.obj
 0003:00001e0c       __crtheap                  1001de0c     LIBCMT:heapinit.obj
 0003:00001e10       ___pioinfo                 1001de10     LIBCMT:ioinit.obj
 0003:00002018       ?__pInconsistency@@3P6AXXZA 1001e018     LIBCMT:hooks.obj
 0003:0000201c       ?g_OutOfMemoryExceptionCallback@@3P6GPAXXZA 1001e01c     LIBCMT:frame.obj
 0003:0000217c       __stdbuf                   1001e17c     LIBCMT:_sftbuf.obj
 0003:00002188       __newmode                  1001e188     LIBCMT:_newmode.obj
 0003:0000218c       ___lconv_static_null       1001e18c     LIBCMT:lconv.obj
 0003:00002190       ___lconv_static_W_null     1001e190     LIBCMT:lconv.obj
 0003:00002194       ?pArgList@UnDecorator@@0PAVReplicator@@A 1001e194     LIBCMT:undname.obj
 0003:00002198       ?pZNameList@UnDecorator@@0PAVReplicator@@A 1001e198     LIBCMT:undname.obj
 0003:0000219c       ?pTemplateArgList@UnDecorator@@0PAVReplicator@@A 1001e19c     LIBCMT:undname.obj
 0003:000021a0       ?gName@UnDecorator@@0PBDB  1001e1a0     LIBCMT:undname.obj
 0003:000021a4       ?name@UnDecorator@@0PBDB   1001e1a4     LIBCMT:undname.obj
 0003:000021a8       ?outputString@UnDecorator@@0PADA 1001e1a8     LIBCMT:undname.obj
 0003:000021ac       ?maxStringLength@UnDecorator@@0HA 1001e1ac     LIBCMT:undname.obj
 0003:000021b0       ?disableFlags@UnDecorator@@0KA 1001e1b0     LIBCMT:undname.obj
 0003:000021b4       ?fExplicitTemplateParams@UnDecorator@@0_NA 1001e1b4     LIBCMT:undname.obj
 0003:000021b5       ?fGetTemplateArgumentList@UnDecorator@@0_NA 1001e1b5     LIBCMT:undname.obj
 0003:000021b8       ?m_pGetParameter@UnDecorator@@0P6APADJ@ZA 1001e1b8     LIBCMT:undname.obj
 0003:000021d0       __outputformat             1001e1d0     LIBCMT:outputformat.obj
 0003:000021d8       ___pfnDliFailureHook2      1001e1d8     DelayImp:delayhk1.obj
 0003:000021dc       ?id@?$num_put@_WV?$back_insert_iterator@V?$basic_string@_WU?$char_traits@_W@std@@V?$allocator@_W@2@@std@@@std@@@std@@2V0locale@2@A 1001e1dc     binding.obj
 0003:000021e0       ?_System_object@?$_Error_objects@H@std@@2V_System_error_category@2@A 1001e1e0     binding.obj
 0003:000021e4       ?id@?$numpunct@_W@std@@2V0locale@2@A 1001e1e4     binding.obj
 0003:000021e8       ?id@?$num_put@DV?$back_insert_iterator@V?$basic_string@DU?$char_traits@D@std@@V?$allocator@D@2@@std@@@std@@@std@@2V0locale@2@A 1001e1e8     binding.obj
 0003:000021ec       ?_Generic_object@?$_Error_objects@H@std@@2V_Generic_error_category@2@A 1001e1ec     binding.obj
 0003:000021f0       ?id@?$numpunct@D@std@@2V0locale@2@A 1001e1f0     binding.obj
 0003:000021f8       ?_Iostream_object@?$_Error_objects@H@std@@2V_Iostream_error_category@2@A 1001e1f8     binding.obj
 0003:000021fc       __debugger_hook_dummy      1001e1fc     <common>
 0003:00002200       _encodedKERNEL32Functions  1001e200     <common>
 0003:00002284       __nhandle                  1001e284     <common>
 0003:000022a0       __bufin                    1001e2a0     <common>
 0003:000032a0       ___piob                    1001f2a0     <common>
 0003:000032a4       __nstream                  1001f2a4     <common>
 0003:000032a8       ___dyn_tls_init_callback   1001f2a8     <common>
 0003:000032ac       ___onexitend               1001f2ac     <common>
 0003:000032b0       ___onexitbegin             1001f2b0     <common>
 0003:000032b4       ___mbctype_initialized     1001f2b4     <common>
 0003:000032b8       ___env_initialized         1001f2b8     <common>
 0003:000032bc       __acmdln                   1001f2bc     <common>

 entry point at        0001:00004ca4

 Static symbols

 0000:fffdd000       .debug$S                   10000000     node:node.exe
 0000:fffdd000       .debug$S                   10000000     node:node.exe
 0000:fffdd000       .debug$S                   10000000     node:node.exe
 0000:fffdd000       .debug$S                   10000000     node:node.exe
 0000:fffdd000       .debug$S                   10000000     node:node.exe
 0000:fffdd000       .debug$S                   10000000     node:node.exe
 0000:fffdd000       .debug$S                   10000000     node:node.exe
 0000:fffdd000       .debug$S                   10000000     node:node.exe
 0000:fffdd000       .debug$S                   10000000     node:node.exe
 0000:fffdd000       .debug$S                   10000000     node:node.exe
 0000:fffdd000       .debug$S                   10000000     node:node.exe
 0000:fffdd000       .debug$S                   10000000     node:node.exe
 0000:fffdd000       .debug$S                   10000000     node:node.exe
 0000:fffdd000       .debug$S                   10000000     node:node.exe
 0000:fffdd000       .debug$S                   10000000     node:node.exe
 0000:fffdd000       .debug$S                   10000000     node:node.exe
 0000:fffdd000       .debug$S                   10000000     node:node.exe
 0000:fffdd000       .debug$S                   10000000     node:node.exe
 0000:fffdd000       .debug$S                   10000000     node:node.exe
 0000:fffdd000       .debug$S                   10000000     node:node.exe
 0000:fffdd000       .debug$S                   10000000     node:node.exe
 0000:fffdd000       .debug$S                   10000000     node:node.exe
 0000:fffdd000       .debug$S                   10000000     node:node.exe
 0000:fffdd000       .debug$S                   10000000     node:node.exe
 0000:fffdd000       .debug$S                   10000000     node:node.exe
 0000:fffdd000       .debug$S                   10000000     node:node.exe
 0000:fffdd000       .debug$S                   10000000     node:node.exe
 0000:fffdd000       .debug$S                   10000000     node:node.exe
 0000:fffdd000       .debug$S                   10000000     node:node.exe
 0000:fffdd000       .debug$S                   10000000     node:node.exe
 0000:fffdd000       .debug$S                   10000000     node:node.exe
 0000:fffdd000       .debug$S                   10000000     node:node.exe
 0000:fffdd000       .debug$S                   10000000     node:node.exe
 0000:fffdd000       .debug$S                   10000000     node:node.exe
 0000:fffdd000       .debug$S                   10000000     node:node.exe
 0000:fffdd000       .debug$S                   10000000     node:node.exe
 0000:fffdd000       .debug$S                   10000000     node:node.exe
 0000:fffdd000       .debug$S                   10000000     node:node.exe
 0000:fffdd000       .debug$S                   10000000     node:node.exe
 0000:fffdd000       .debug$S                   10000000     node:node.exe
 0000:fffdd000       .debug$S                   10000000     node:node.exe
 0000:fffdd000       .debug$S                   10000000     node:node.exe
 0000:fffdd000       .debug$S                   10000000     node:node.exe
 0000:fffdd000       .debug$S                   10000000     node:node.exe
 0000:fffdd000       .debug$S                   10000000     node:node.exe
 0000:fffdd000       .debug$S                   10000000     node:node.exe
 0000:fffdd000       .debug$S                   10000000     node:node.exe
 0000:fffdd000       .debug$S                   10000000     node:node.exe
 0000:fffdd000       .debug$S                   10000000     node:node.exe
 0000:fffdd000       .debug$S                   10000000     node:node.exe
 0000:fffdd000       .debug$S                   10000000     kernel32:KERNEL32.dll
 0000:fffdd000       .debug$S                   10000000     kernel32:KERNEL32.dll
 0000:fffdd000       .debug$S                   10000000     kernel32:KERNEL32.dll
 0000:fffdd000       .debug$S                   10000000     kernel32:KERNEL32.dll
 0000:fffdd000       .debug$S                   10000000     kernel32:KERNEL32.dll
 0000:fffdd000       .debug$S                   10000000     kernel32:KERNEL32.dll
 0000:fffdd000       .debug$S                   10000000     kernel32:KERNEL32.dll
 0000:fffdd000       .debug$S                   10000000     kernel32:KERNEL32.dll
 0000:fffdd000       .debug$S                   10000000     kernel32:KERNEL32.dll
 0000:fffdd000       .debug$S                   10000000     kernel32:KERNEL32.dll
 0000:fffdd000       .debug$S                   10000000     kernel32:KERNEL32.dll
 0000:fffdd000       .debug$S                   10000000     kernel32:KERNEL32.dll
 0000:fffdd000       .debug$S                   10000000     kernel32:KERNEL32.dll
 0000:fffdd000       .debug$S                   10000000     kernel32:KERNEL32.dll
 0000:fffdd000       .debug$S                   10000000     kernel32:KERNEL32.dll
 0000:fffdd000       .debug$S                   10000000     kernel32:KERNEL32.dll
 0000:fffdd000       .debug$S                   10000000     kernel32:KERNEL32.dll
 0000:fffdd000       .debug$S                   10000000     kernel32:KERNEL32.dll
 0000:fffdd000       .debug$S                   10000000     kernel32:KERNEL32.dll
 0000:fffdd000       .debug$S                   10000000     kernel32:KERNEL32.dll
 0000:fffdd000       .debug$S                   10000000     kernel32:KERNEL32.dll
 0000:fffdd000       .debug$S                   10000000     kernel32:KERNEL32.dll
 0000:fffdd000       .debug$S                   10000000     kernel32:KERNEL32.dll
 0000:fffdd000       .debug$S                   10000000     kernel32:KERNEL32.dll
 0000:fffdd000       .debug$S                   10000000     kernel32:KERNEL32.dll
 0000:fffdd000       .debug$S                   10000000     kernel32:KERNEL32.dll
 0000:fffdd000       .debug$S                   10000000     kernel32:KERNEL32.dll
 0000:fffdd000       .debug$S                   10000000     kernel32:KERNEL32.dll
 0000:fffdd000       .debug$S                   10000000     kernel32:KERNEL32.dll
 0000:fffdd000       .debug$S                   10000000     kernel32:KERNEL32.dll
 0000:fffdd000       .debug$S                   10000000     kernel32:KERNEL32.dll
 0000:fffdd000       .debug$S                   10000000     kernel32:KERNEL32.dll
 0000:fffdd000       .debug$S                   10000000     kernel32:KERNEL32.dll
 0000:fffdd000       .debug$S                   10000000     kernel32:KERNEL32.dll
 0000:fffdd000       .debug$S                   10000000     kernel32:KERNEL32.dll
 0000:fffdd000       .debug$S                   10000000     kernel32:KERNEL32.dll
 0000:fffdd000       .debug$S                   10000000     kernel32:KERNEL32.dll
 0000:fffdd000       .debug$S                   10000000     kernel32:KERNEL32.dll
 0000:fffdd000       .debug$S                   10000000     kernel32:KERNEL32.dll
 0000:fffdd000       .debug$S                   10000000     kernel32:KERNEL32.dll
 0000:fffdd000       .debug$S                   10000000     kernel32:KERNEL32.dll
 0000:fffdd000       .debug$S                   10000000     kernel32:KERNEL32.dll
 0000:fffdd000       .debug$S                   10000000     kernel32:KERNEL32.dll
 0000:fffdd000       .debug$S                   10000000     kernel32:KERNEL32.dll
 0000:fffdd000       .debug$S                   10000000     kernel32:KERNEL32.dll
 0000:fffdd000       .debug$S                   10000000     kernel32:KERNEL32.dll
 0000:fffdd000       .debug$S                   10000000     kernel32:KERNEL32.dll
 0000:fffdd000       .debug$S                   10000000     kernel32:KERNEL32.dll
 0000:fffdd000       .debug$S                   10000000     kernel32:KERNEL32.dll
 0000:fffdd000       .debug$S                   10000000     kernel32:KERNEL32.dll
 0000:fffdd000       .debug$S                   10000000     kernel32:KERNEL32.dll
 0000:fffdd000       .debug$S                   10000000     kernel32:KERNEL32.dll
 0000:fffdd000       .debug$S                   10000000     kernel32:KERNEL32.dll
 0000:fffdd000       .debug$S                   10000000     kernel32:KERNEL32.dll
 0000:fffdd000       .debug$S                   10000000     kernel32:KERNEL32.dll
 0000:fffdd000       .debug$S                   10000000     kernel32:KERNEL32.dll
 0000:fffdd000       .debug$S                   10000000     kernel32:KERNEL32.dll
 0000:fffdd000       .debug$S                   10000000     kernel32:KERNEL32.dll
 0000:fffdd000       .debug$S                   10000000     kernel32:KERNEL32.dll
 0000:fffdd000       .debug$S                   10000000     kernel32:KERNEL32.dll
 0000:fffdd000       .debug$S                   10000000     kernel32:KERNEL32.dll
 0000:fffdd000       .debug$S                   10000000     kernel32:KERNEL32.dll
 0000:fffdd000       .debug$S                   10000000     kernel32:KERNEL32.dll
 0000:fffdd000       .debug$S                   10000000     kernel32:KERNEL32.dll
 0000:fffdd000       .debug$S                   10000000     kernel32:KERNEL32.dll
 0000:fffdd000       .debug$S                   10000000     kernel32:KERNEL32.dll
 0000:fffdd000       .debug$S                   10000000     kernel32:KERNEL32.dll
 0000:fffdd000       .debug$S                   10000000     kernel32:KERNEL32.dll
 0000:fffdd000       .debug$S                   10000000     kernel32:KERNEL32.dll
 0000:fffdd000       .debug$S                   10000000     kernel32:KERNEL32.dll
 0000:fffdd000       .debug$S                   10000000     kernel32:KERNEL32.dll
 0000:fffdd000       .debug$S                   10000000     kernel32:KERNEL32.dll
 0000:fffdd000       .debug$S                   10000000     kernel32:KERNEL32.dll
 0000:fffdd000       .debug$S                   10000000     kernel32:KERNEL32.dll
 0000:fffdd000       .debug$S                   10000000     kernel32:KERNEL32.dll
 0000:fffdd000       .debug$S                   10000000     kernel32:KERNEL32.dll
 0000:fffdd000       .debug$S                   10000000     kernel32:KERNEL32.dll
 0000:fffdd000       .debug$S                   10000000     kernel32:KERNEL32.dll
 0001:00000000       ?FunctionCallbackWrapper@imp@Nan@@YAXABV?$FunctionCallbackInfo@VValue@v8@@@v8@@@Z 10001000 f   * CIL library *:* CIL module *
 0001:00001a90       __register_binding         10002a90 f   * CIL library *:* CIL module *
 0001:00001e10       _load_exe_hook@8           10002e10 f   * CIL library *:* CIL module *
 0001:00002120       ?IncrementalCopy@snappy@@YAXPBDPADJ@Z 10003120 f   * CIL library *:* CIL module *
 0001:000021b0       ?EmitLiteral@snappy@@YAPADPADPBDH_N@Z 100031b0 f   * CIL library *:* CIL module *
 0001:00002270       ?EmitCopyLessThan64@snappy@@YAPADPADIH@Z 10003270 f   * CIL library *:* CIL module *
 0001:00002340       ?EmitCopy@snappy@@YAPADPADIH@Z 10003340 f   * CIL library *:* CIL module *
 0001:000031e0       ??$InternalUncompress@VSnappyArrayWriter@snappy@@@snappy@@YA_NPAVSource@0@PAVSnappyArrayWriter@0@@Z 100041e0 f   * CIL library *:* CIL module *
 0001:000032c0       ??$InternalUncompress@VSnappyDecompressionValidator@snappy@@@snappy@@YA_NPAVSource@0@PAVSnappyDecompressionValidator@0@@Z 100042c0 f   * CIL library *:* CIL module *
 0001:00003af0       $$000000                   10004af0     LIBCMT:memmove.obj
 0001:00003d40       LeadUpVec                  10004d40     LIBCMT:memmove.obj
 0001:00003dbc       UnwindUpVec                10004dbc     LIBCMT:memmove.obj
 0001:00003e28       TrailUpVec                 10004e28     LIBCMT:memmove.obj
 0001:00003ecc       LeadDownVec                10004ecc     LIBCMT:memmove.obj
 0001:00003f58       UnwindDownVec              10004f58     LIBCMT:memmove.obj
 0001:00003fc4       TrailDownVec               10004fc4     LIBCMT:memmove.obj
 0001:000047bc       _swprintf                  100057bc f   LIBCMT:wassert.obj
 0001:0000484b       __onexit_nolock            1000584b f   LIBCMT:onexit.obj
 0001:00004cc7       ___DllMainCRTStartup       10005cc7 f   LIBCMT:dllcrt0.obj
 0001:00004e00       $$000000                   10005e00     LIBCMT:memcpy.obj
 0001:00005050       LeadUpVec                  10006050     LIBCMT:memcpy.obj
 0001:000050cc       UnwindUpVec                100060cc     LIBCMT:memcpy.obj
 0001:00005138       TrailUpVec                 10006138     LIBCMT:memcpy.obj
 0001:000051dc       LeadDownVec                100061dc     LIBCMT:memcpy.obj
 0001:00005268       UnwindDownVec              10006268     LIBCMT:memcpy.obj
 0001:000052d4       TrailDownVec               100062d4     LIBCMT:memcpy.obj
 0001:00005450       $$000000                   10006450     LIBCMT:strlen.obj
 0001:00005574       ?CatchGuardHandler@@YA?AW4_EXCEPTION_DISPOSITION@@PAUEHExceptionRecord@@PAUCatchGuardRN@@PAX2@Z 10006574 f   LIBCMT:_trnsctrl_.obj
 0001:000055a5       ?TranslatorGuardHandler@@YA?AW4_EXCEPTION_DISPOSITION@@PAUEHExceptionRecord@@PAUTranslatorGuardRN@@PAX2@Z 100065a5 f   LIBCMT:_trnsctrl_.obj
 0001:00006418       __initterm                 10007418 f   LIBCMT:crt0dat.obj
 0001:00006482       _doexit                    10007482 f   LIBCMT:crt0dat.obj
 0001:0000667c       _xtow_s@20                 1000767c f   LIBCMT:xtows.obj
 0001:000069f1       _flsall                    100079f1 f   LIBCMT:fflush.obj
 0001:00006f76       _siglookup                 10007f76 f   LIBCMT:winsig.obj
 0001:000074c0       $$000000                   100084c0     LIBCMT:sehprolg4.obj
 0001:00007700       $$000000                   10008700     LIBCMT:sqrt.obj
 0001:00008323       ?CPtoLocaleName@@YAPB_WH@Z 10009323 f   LIBCMT:mbctype.obj
 0001:0000835d       ?getSystemCP@@YAHH@Z       1000935d f   LIBCMT:mbctype.obj
 0001:000083cb       ?setSBCS@@YAXPAUthreadmbcinfostruct@@@Z 100093cb f   LIBCMT:mbctype.obj
 0001:0000842a       ?setSBUpLow@@YAXPAUthreadmbcinfostruct@@@Z 1000942a f   LIBCMT:mbctype.obj
 0001:000094c5       _parse_cmdline             1000a4c5 f   LIBCMT:stdargv.obj
 0001:00009c50       $$000000                   1000ac50     LIBCMT:lowhelpr.obj
 0001:00009e02       ?CallCatchBlock@@YAPAXPAUEHExceptionRecord@@PAUEHRegistrationNode@@PAU_CONTEXT@@PBU_s_FuncInfo@@PAXHK@Z 1000ae02 f   LIBCMT:frame.obj
 0001:00009fc8       ?CallUnexpected@@YAXPBU_s_ESTypeList@@@Z 1000afc8 f   LIBCMT:frame.obj
 0001:00009ff0       __catch$?CallUnexpected@@YAXPBU_s_ESTypeList@@@Z$0 1000aff0 f   LIBCMT:frame.obj
 0001:0000a008       ?CatchIt@@YAXPAUEHExceptionRecord@@PAUEHRegistrationNode@@PAU_CONTEXT@@PAXPBU_s_FuncInfo@@PBU_s_HandlerType@@PBU_s_CatchableType@@PBU_s_TryBlockMapEntry@@H1E@Z 1000b008 f   LIBCMT:frame.obj
 0001:0000a083       ?ExFilterRethrow@@YAHPAU_EXCEPTION_POINTERS@@@Z 1000b083 f   LIBCMT:frame.obj
 0001:0000a0d0       ?FindHandler@@YAXPAUEHExceptionRecord@@PAUEHRegistrationNode@@PAU_CONTEXT@@PAXPBU_s_FuncInfo@@EH1@Z 1000b0d0 f   LIBCMT:frame.obj
 0001:0000a46d       ?FindHandlerForForeignException@@YAXPAUEHExceptionRecord@@PAUEHRegistrationNode@@PAU_CONTEXT@@PAXPBU_s_FuncInfo@@HH1@Z 1000b46d f   LIBCMT:frame.obj
 0001:0000a589       ?IsInExceptionSpec@@YAEPAUEHExceptionRecord@@PBU_s_ESTypeList@@@Z 1000b589 f   LIBCMT:frame.obj
 0001:0000ab00       $$000000                   1000bb00     LIBCMT:strcmp.obj
 0001:0000b01e       __cftoe2_l                 1000c01e f   LIBCMT:cvt.obj
 0001:0000b23d       __cftof2_l                 1000c23d f   LIBCMT:cvt.obj
 0001:0000b673       __shift                    1000c673 f   LIBCMT:cvt.obj
 0001:0000b740       $$000000                   1000c740     LIBCMT:memset.obj
 0001:0000bb80       $$000000                   1000cb80     LIBCMT:ulldvrm.obj
 0001:0000d327       $LN267                     1000e327     LIBCMT:woutput.obj
 0001:0000d347       _write_char                1000e347 f   LIBCMT:woutput.obj
 0001:0000d37d       _write_multi_char          1000e37d f   LIBCMT:woutput.obj
 0001:0000d3a9       _write_string              1000e3a9 f   LIBCMT:woutput.obj
 0001:0000d760       $$000000                   1000e760     LIBCMT:exsup4.obj
 0001:0000d7f0       __unwind_handler4          1000e7f0 f   LIBCMT:exsup4.obj
 0001:0000da10       $$000000                   1000ea10     LIBCMT:87disp.obj
 0001:0000dbe0       $$000000                   1000ebe0     LIBCMT:genexcep.obj
 0001:0000dc40       $$000000                   1000ec40     LIBCMT:common.obj
 0001:0000e2b2       ?__crtLCMapStringA_stat@@YAHPAUlocaleinfo_struct@@PB_WKPBDHPADHHH@Z 1000f2b2 f   LIBCMT:a_map.obj
 0001:0000e4fc       ?__crtGetStringTypeA_stat@@YAHPAUlocaleinfo_struct@@KPBDHPAGHH@Z 1000f4fc f   LIBCMT:a_str.obj
 0001:0000e730       ?x_ismbbtype_l@@YAHPAUlocaleinfo_struct@@IHH@Z 1000f730 f   LIBCMT:ismbbyte.obj
 0001:0000e7a0       $$000000                   1000f7a0     LIBCMT:exsup.obj
 0001:0000e7c0       __unwind_handler           1000f7c0 f   LIBCMT:exsup.obj
 0001:0000e970       $$000000                   1000f970     LIBCMT:strrchr.obj
 0001:0000ee00       $$000000                   1000fe00     LIBCMT:lldvrm.obj
 0001:0000eee0       $$000000                   1000fee0     LIBCMT:ullshr.obj
 0001:0000f5d0       $$000000                   100105d0     LIBCMT:chkstk.obj
 0001:0000f7e0       $$000000                   100107e0     LIBCMT:alloca16.obj
 0001:00010b71       $LN333                     10011b71     LIBCMT:strgtold.obj
 0001:00011575       ___hw_cw_sse2              10012575 f   LIBCMT:ieee87.obj
 0001:00011920       __hw_cw                    10012920 f   LIBCMT:ieee87.obj
 0001:00011ff0       $$000000                   10012ff0     LIBCMT:llmul.obj
 0001:00012250       __unwindfunclet$?Execute@IsValidCompressedWorker@nodesnappy@@UAEXXZ$1 10013250 f   * CIL library *:* CIL module *
 0001:00012258       __unwindfunclet$?Execute@IsValidCompressedWorker@nodesnappy@@UAEXXZ$0 10013258 f   * CIL library *:* CIL module *
 0001:00012260       __unwindfunclet$?Execute@IsValidCompressedWorker@nodesnappy@@UAEXXZ$2 10013260 f   * CIL library *:* CIL module *
 0001:00012268       __ehhandler$?Execute@IsValidCompressedWorker@nodesnappy@@UAEXXZ 10013268 f   * CIL library *:* CIL module *
 0001:00012290       __unwindfunclet$?IsValidCompressedSync@nodesnappy@@YAXABV?$FunctionCallbackInfo@VValue@v8@@@Nan@@@Z$1 10013290 f   * CIL library *:* CIL module *
 0001:00012298       __unwindfunclet$?IsValidCompressedSync@nodesnappy@@YAXABV?$FunctionCallbackInfo@VValue@v8@@@Nan@@@Z$0 10013298 f   * CIL library *:* CIL module *
 0001:000122a0       __unwindfunclet$?IsValidCompressedSync@nodesnappy@@YAXABV?$FunctionCallbackInfo@VValue@v8@@@Nan@@@Z$2 100132a0 f   * CIL library *:* CIL module *
 0001:000122a8       __ehhandler$?IsValidCompressedSync@nodesnappy@@YAXABV?$FunctionCallbackInfo@VValue@v8@@@Nan@@@Z 100132a8 f   * CIL library *:* CIL module *
 0001:000122d0       __unwindfunclet$??_GByteArraySource@snappy@@UAEPAXI@Z$0 100132d0 f   * CIL library *:* CIL module *
 0001:000122d8       __ehhandler$??_GByteArraySource@snappy@@UAEPAXI@Z 100132d8 f   * CIL library *:* CIL module *
 0001:00012300       __unwindfunclet$??_GUncheckedByteArraySink@snappy@@UAEPAXI@Z$0 10013300 f   * CIL library *:* CIL module *
 0001:00012308       __ehhandler$??_GUncheckedByteArraySink@snappy@@UAEPAXI@Z 10013308 f   * CIL library *:* CIL module *
 0001:00012330       __unwindfunclet$?Compress@snappy@@YAIPAVSource@1@PAVSink@1@@Z$0 10013330 f   * CIL library *:* CIL module *
 0001:0001233b       __ehhandler$?Compress@snappy@@YAIPAVSource@1@PAVSink@1@@Z 1001333b f   * CIL library *:* CIL module *
 0001:00012370       __unwindfunclet$?RawUncompress@snappy@@YA_NPBDIPAD@Z$1 10013370 f   * CIL library *:* CIL module *
 0001:00012378       __unwindfunclet$?RawUncompress@snappy@@YA_NPBDIPAD@Z$0 10013378 f   * CIL library *:* CIL module *
 0001:00012380       __unwindfunclet$?RawUncompress@snappy@@YA_NPBDIPAD@Z$2 10013380 f   * CIL library *:* CIL module *
 0001:00012388       __ehhandler$?RawUncompress@snappy@@YA_NPBDIPAD@Z 10013388 f   * CIL library *:* CIL module *
 0001:000123b0       __unwindfunclet$?RawCompress@snappy@@YAXPBDIPADPAI@Z$2 100133b0 f   * CIL library *:* CIL module *
 0001:000123b8       __unwindfunclet$?RawCompress@snappy@@YAXPBDIPADPAI@Z$0 100133b8 f   * CIL library *:* CIL module *
 0001:000123c0       __unwindfunclet$?RawCompress@snappy@@YAXPBDIPADPAI@Z$3 100133c0 f   * CIL library *:* CIL module *
 0001:000123c8       __unwindfunclet$?RawCompress@snappy@@YAXPBDIPADPAI@Z$1 100133c8 f   * CIL library *:* CIL module *
 0001:000123d0       __unwindfunclet$?RawCompress@snappy@@YAXPBDIPADPAI@Z$4 100133d0 f   * CIL library *:* CIL module *
 0001:000123d8       __unwindfunclet$?RawCompress@snappy@@YAXPBDIPADPAI@Z$5 100133d8 f   * CIL library *:* CIL module *
 0001:000123e0       __ehhandler$?RawCompress@snappy@@YAXPBDIPADPAI@Z 100133e0 f   * CIL library *:* CIL module *
 0001:00012400       __unwindfunclet$??$InternalUncompress@VSnappyArrayWriter@snappy@@@snappy@@YA_NPAVSource@0@PAVSnappyArrayWriter@0@@Z$0 10013400 f   * CIL library *:* CIL module *
 0001:00012408       __ehhandler$??$InternalUncompress@VSnappyArrayWriter@snappy@@@snappy@@YA_NPAVSource@0@PAVSnappyArrayWriter@0@@Z 10013408 f   * CIL library *:* CIL module *
 0001:00012430       __unwindfunclet$??$InternalUncompress@VSnappyDecompressionValidator@snappy@@@snappy@@YA_NPAVSource@0@PAVSnappyDecompressionValidator@0@@Z$0 10013430 f   * CIL library *:* CIL module *
 0001:00012438       __ehhandler$??$InternalUncompress@VSnappyDecompressionValidator@snappy@@@snappy@@YA_NPAVSource@0@PAVSnappyDecompressionValidator@0@@Z 10013438 f   * CIL library *:* CIL module *
 0001:00012460       __unwindfunclet$??1ByteArraySource@snappy@@UAE@XZ$0 10013460 f   * CIL library *:* CIL module *
 0001:00012468       __ehhandler$??1ByteArraySource@snappy@@UAE@XZ 10013468 f   * CIL library *:* CIL module *
 0001:00012490       __unwindfunclet$??1UncheckedByteArraySink@snappy@@UAE@XZ$0 10013490 f   * CIL library *:* CIL module *
 0001:00012498       __ehhandler$??1UncheckedByteArraySink@snappy@@UAE@XZ 10013498 f   * CIL library *:* CIL module *
 0001:000124b3       __ehhandler$?CallUnexpected@@YAXPBU_s_ESTypeList@@@Z 100134b3 f   LIBCMT:frame.obj
 0002:00000114       _pinit                     10014114     LIBCMT:onexit.obj
 0002:00000118       _pinit                     10014118     LIBCMT:cpu_disp.obj
 0002:0000011c       _pinit                     1001411c     LIBCMT:_file.obj
 0002:00000120       _pinit                     10014120     LIBCMT:mbctype.obj
 0002:0000012c       _pterm                     1001412c     LIBCMT:wsetloca.obj
 0002:00000130       _pterm                     10014130     LIBCMT:initcon.obj
 0002:00000134       _pterm                     10014134     LIBCMT:_file.obj
 0002:00000628       __Win_errtab               10014628     libcpmt:syserror.obj
 0002:00000880       __Sys_errtab               10014880     libcpmt:syserror.obj
 0002:000011a0       ?ExceptionTemplate@?1??_CxxThrowException@@9@8@4UEHExceptionRecord@@B 100151a0     LIBCMT:throw.obj
 0002:000011ec       _GS_ExceptionPointers      100151ec     LIBCMT:gs_report.obj
 0002:00001298       _rterrs                    10015298     LIBCMT:crt0msg.obj
 0002:00001d34       __mb_locale_names          10015d34     LIBCMT:mbctype.obj
 0002:000020d0       __first_127char            100160d0     LIBCMT:wsetloca.obj
 0002:00004584       One                        10018584     LIBCMT:87disp.obj
 0002:0000458c       XAMtoTagTab                1001858c     LIBCMT:87disp.obj
 0002:000045a0       One                        100185a0     LIBCMT:common.obj
 0002:000045b4       DblMax                     100185b4     LIBCMT:common.obj
 0002:000045bc       DblMin                     100185bc     LIBCMT:common.obj
 0002:000045c4       IeeeAdjO                   100185c4     LIBCMT:common.obj
 0002:000045cc       IeeeAdjU                   100185cc     LIBCMT:common.obj
 0002:000045d4       _infinity                  100185d4     LIBCMT:common.obj
 0002:000045dc       _zero                      100185dc     LIBCMT:common.obj
 0002:00004df8       _tokenTable                10018df8     LIBCMT:undname.obj
 0002:00004e30       _nameTable                 10018e30     LIBCMT:undname.obj
 0002:00004f70       _rttiTable                 10018f70     LIBCMT:undname.obj
 0002:00005e90       _wordmask                  10019e90     * CIL library *:* CIL module *
 0002:00005ea4       _kBlockSize                10019ea4     * CIL library *:* CIL module *
 0002:00005eb0       _char_table                10019eb0     * CIL library *:* CIL module *
 0002:000063e8       __unwindtable$?Execute@IsValidCompressedWorker@nodesnappy@@UAEXXZ 1001a3e8     * CIL library *:* CIL module *
 0002:00006400       __ehfuncinfo$?Execute@IsValidCompressedWorker@nodesnappy@@UAEXXZ 1001a400     * CIL library *:* CIL module *
 0002:00006424       __unwindtable$?IsValidCompressedSync@nodesnappy@@YAXABV?$FunctionCallbackInfo@VValue@v8@@@Nan@@@Z 1001a424     * CIL library *:* CIL module *
 0002:0000643c       __ehfuncinfo$?IsValidCompressedSync@nodesnappy@@YAXABV?$FunctionCallbackInfo@VValue@v8@@@Nan@@@Z 1001a43c     * CIL library *:* CIL module *
 0002:00006460       __unwindtable$??_GByteArraySource@snappy@@UAEPAXI@Z 1001a460     * CIL library *:* CIL module *
 0002:00006468       __ehfuncinfo$??_GByteArraySource@snappy@@UAEPAXI@Z 1001a468     * CIL library *:* CIL module *
 0002:0000648c       __unwindtable$??_GUncheckedByteArraySink@snappy@@UAEPAXI@Z 1001a48c     * CIL library *:* CIL module *
 0002:00006494       __ehfuncinfo$??_GUncheckedByteArraySink@snappy@@UAEPAXI@Z 1001a494     * CIL library *:* CIL module *
 0002:000064b8       __unwindtable$?Compress@snappy@@YAIPAVSource@1@PAVSink@1@@Z 1001a4b8     * CIL library *:* CIL module *
 0002:000064c0       __ehfuncinfo$?Compress@snappy@@YAIPAVSource@1@PAVSink@1@@Z 1001a4c0     * CIL library *:* CIL module *
 0002:000064e4       __unwindtable$?RawUncompress@snappy@@YA_NPBDIPAD@Z 1001a4e4     * CIL library *:* CIL module *
 0002:000064fc       __ehfuncinfo$?RawUncompress@snappy@@YA_NPBDIPAD@Z 1001a4fc     * CIL library *:* CIL module *
 0002:00006520       __ehfuncinfo$?RawCompress@snappy@@YAXPBDIPADPAI@Z 1001a520     * CIL library *:* CIL module *
 0002:00006544       __unwindtable$?RawCompress@snappy@@YAXPBDIPADPAI@Z 1001a544     * CIL library *:* CIL module *
 0002:00006574       __unwindtable$??$InternalUncompress@VSnappyArrayWriter@snappy@@@snappy@@YA_NPAVSource@0@PAVSnappyArrayWriter@0@@Z 1001a574     * CIL library *:* CIL module *
 0002:0000657c       __ehfuncinfo$??$InternalUncompress@VSnappyArrayWriter@snappy@@@snappy@@YA_NPAVSource@0@PAVSnappyArrayWriter@0@@Z 1001a57c     * CIL library *:* CIL module *
 0002:000065a0       __unwindtable$??$InternalUncompress@VSnappyDecompressionValidator@snappy@@@snappy@@YA_NPAVSource@0@PAVSnappyDecompressionValidator@0@@Z 1001a5a0     * CIL library *:* CIL module *
 0002:000065a8       __ehfuncinfo$??$InternalUncompress@VSnappyDecompressionValidator@snappy@@@snappy@@YA_NPAVSource@0@PAVSnappyDecompressionValidator@0@@Z 1001a5a8     * CIL library *:* CIL module *
 0002:000065cc       __unwindtable$??1ByteArraySource@snappy@@UAE@XZ 1001a5cc     * CIL library *:* CIL module *
 0002:000065d4       __ehfuncinfo$??1ByteArraySource@snappy@@UAE@XZ 1001a5d4     * CIL library *:* CIL module *
 0002:000065f8       __unwindtable$??1UncheckedByteArraySink@snappy@@UAE@XZ 1001a5f8     * CIL library *:* CIL module *
 0002:00006600       __ehfuncinfo$??1UncheckedByteArraySink@snappy@@UAE@XZ 1001a600     * CIL library *:* CIL module *
 0002:00006710       __sehtable$__onexit        1001a710     LIBCMT:onexit.obj
 0002:00006730       __sehtable$__CRT_INIT@12   1001a730     LIBCMT:dllcrt0.obj
 0002:00006750       __sehtable$___DllMainCRTStartup 1001a750     LIBCMT:dllcrt0.obj
 0002:00006770       __sehtable$_doexit         1001a770     LIBCMT:crt0dat.obj
 0002:00006790       __sehtable$_fflush         1001a790     LIBCMT:fflush.obj
 0002:000067b0       __sehtable$_flsall         1001a7b0     LIBCMT:fflush.obj
 0002:000067d8       __sehtable$_setvbuf        1001a7d8     LIBCMT:setvbuf.obj
 0002:000067f8       __sehtable$_fwprintf       1001a7f8     LIBCMT:fwprintf.obj
 0002:00006818       __sehtable$_raise          1001a818     LIBCMT:winsig.obj
 0002:00006838       __sehtable$___set_fpsr_sse2 1001a838     LIBCMT:fpctrl.obj
 0002:00006858       __sehtable$___updatetlocinfo 1001a858     LIBCMT:localref.obj
 0002:00006878       __sehtable$___updatetmbcinfo 1001a878     LIBCMT:mbctype.obj
 0002:00006898       __sehtable$__setmbcp       1001a898     LIBCMT:mbctype.obj
 0002:000068b8       __sehtable$__freefls@4     1001a8b8     LIBCMT:tidtable.obj
 0002:000068e0       __sehtable$__initptd       1001a8e0     LIBCMT:tidtable.obj
 0002:00006908       __sehtable$__locterm       1001a908     LIBCMT:wsetloca.obj
 0002:00006928       __sehtable$__ioinit        1001a928     LIBCMT:ioinit.obj
 0002:00006948       __sehtable$?terminate@@YAXXZ 1001a948     LIBCMT:hooks.obj
 0002:00006968       __sehtable$?_inconsistency@@YAXXZ 1001a968     LIBCMT:hooks.obj
 0002:00006988       __sehtable$___FrameUnwindToState 1001a988     LIBCMT:frame.obj
 0002:000069b0       __sehtable$?CallCatchBlock@@YAPAXPAUEHExceptionRecord@@PAUEHRegistrationNode@@PAU_CONTEXT@@PBU_s_FuncInfo@@PAXHK@Z 1001a9b0     LIBCMT:frame.obj
 0002:000069d8       __sehtable$___BuildCatchObject 1001a9d8     LIBCMT:frame.obj
 0002:000069f8       __sehtable$___DestructExceptionObject 1001a9f8     LIBCMT:frame.obj
 0002:00006a14       __catchsym$?CallUnexpected@@YAXPBU_s_ESTypeList@@@Z$2 1001aa14     LIBCMT:frame.obj
 0002:00006a24       __unwindtable$?CallUnexpected@@YAXPBU_s_ESTypeList@@@Z 1001aa24     LIBCMT:frame.obj
 0002:00006a34       __tryblocktable$?CallUnexpected@@YAXPBU_s_ESTypeList@@@Z 1001aa34     LIBCMT:frame.obj
 0002:00006a48       __ehfuncinfo$?CallUnexpected@@YAXPBU_s_ESTypeList@@@Z 1001aa48     LIBCMT:frame.obj
 0002:00006a70       __sehtable$___BuildCatchObjectHelper 1001aa70     LIBCMT:frame.obj
 0002:00006ac8       __sehtable$?_Type_info_dtor@type_info@@CAXPAV1@@Z 1001aac8     LIBCMT:typname.obj
 0002:00006ae8       __sehtable$__mtinitlocknum 1001aae8     LIBCMT:mlock.obj
 0002:00006b08       __sehtable$__IsNonwritableInCurrentImage 1001ab08     LIBCMT:pesect.obj
 0002:00006b28       __sehtable$__fcloseall     1001ab28     LIBCMT:closeall.obj
 0002:00006b48       __sehtable$__commit        1001ab48     LIBCMT:commit.obj
 0002:00006b68       __sehtable$__write         1001ab68     LIBCMT:write.obj
 0002:00006b88       __sehtable$_fclose         1001ab88     LIBCMT:fclose.obj
 0002:00006ba8       __sehtable$___lock_fhandle 1001aba8     LIBCMT:osfinfo.obj
 0002:00006bc8       __sehtable$__lseeki64      1001abc8     LIBCMT:lseeki64.obj
 0002:00006be8       __sehtable$__close         1001abe8     LIBCMT:close.obj
 0002:000078d0       .edata                     1001b8d0     binding.exp
 0002:000078f8       rgpv                       1001b8f8     binding.exp
 0002:000078fc       rgszName                   1001b8fc     binding.exp
 0002:00007900       rgwOrd                     1001b900     binding.exp
 0002:00007902       szName                     1001b902     binding.exp
 0002:0000790f       $N00001                    1001b90f     binding.exp
 0002:00007a64       .idata$6                   1001ba64     kernel32:KERNEL32.dll
 0003:00000000       __assertstring             1001c000     LIBCMT:wassert.obj
 0003:00000050       _dotdotdot                 1001c050     LIBCMT:wassert.obj
 0003:00000054       _newline                   1001c054     LIBCMT:wassert.obj
 0003:00000058       _dblnewline                1001c058     LIBCMT:wassert.obj
 0003:00000300       _NAME_                     1001c300     LIBCMT:sqrt.obj
 0003:00000330       ?_names@?1??_get_fname@@9@9 1001c330     LIBCMT:fpexcept.obj
 0003:00000418       _over                      1001c418     LIBCMT:fpctrl.obj
 0003:00000424       _under                     1001c424     LIBCMT:fpctrl.obj
 0003:00000430       ?__DAZ_ENABLED@?1??__set_fpsr_sse2@@9@9 1001c430     LIBCMT:fpctrl.obj
 0003:00000860       ___rgctypeflag             1001c860     LIBCMT:mbctype.obj
 0003:00000868       ___rgcode_page_info        1001c868     LIBCMT:mbctype.obj
 0003:00000960       _errtable                  1001c960     LIBCMT:dosmap.obj
 0003:00000ac8       _ErrnoNoMem                1001cac8     LIBCMT:dosmap.obj
 0003:00000acc       _DoserrorNoMem             1001cacc     LIBCMT:dosmap.obj
 0003:00000cfc       __ctype_loc_style          1001ccfc     LIBCMT:wsetloca.obj
 0003:00000d40       ?isPackaged@?1??__crtIsPackagedApp@@9@9 1001cd40     LIBCMT:winapisupp.obj
 0003:00000d80       __locktable                1001cd80     LIBCMT:mlock.obj
 0003:00000f30       _DoubleFormat              1001cf30     LIBCMT:intrncvt.obj
 0003:00000f48       _FloatFormat               1001cf48     LIBCMT:intrncvt.obj
 0003:00001238       __module                   1001d238     * CIL library *:* CIL module *
 0003:00001404       _allocator_arg             1001d404     libcpmt:syserror.obj
 0003:00001405       _piecewise_construct       1001d405     libcpmt:syserror.obj
 0003:00001406       __Tuple_alloc              1001d406     libcpmt:xthrow.obj
 0003:00001407       _ignore                    1001d407     libcpmt:xthrow.obj
 0003:00001408       _allocator_arg             1001d408     libcpmt:xthrow.obj
 0003:00001409       _piecewise_construct       1001d409     libcpmt:xthrow.obj
 0003:0000140c       ___proc_attached           1001d40c     LIBCMT:dllcrt0.obj
 0003:00001420       _GS_ExceptionRecord        1001d420     LIBCMT:gs_report.obj
 0003:00001470       _GS_ContextRecord          1001d470     LIBCMT:gs_report.obj
 0003:0000173c       _DebuggerWasPresent        1001d73c     LIBCMT:gs_report.obj
 0003:00001788       _ctrlc_action              1001d788     LIBCMT:winsig.obj
 0003:0000178c       _ctrlbreak_action          1001d78c     LIBCMT:winsig.obj
 0003:00001790       _abort_action              1001d790     LIBCMT:winsig.obj
 0003:00001794       _term_action               1001d794     LIBCMT:winsig.obj
 0003:00001798       _ConsoleCtrlHandler_Installed 1001d798     LIBCMT:winsig.obj
 0003:0000179c       ?pfnMessageBox@?1??__crtMessageBoxW@@9@9 1001d79c     LIBCMT:crtmboxw.obj
 0003:000017a0       ?pfnGetActiveWindow@?1??__crtMessageBoxW@@9@9 1001d7a0     LIBCMT:crtmboxw.obj
 0003:000017a4       ?pfnGetLastActivePopup@?1??__crtMessageBoxW@@9@9 1001d7a4     LIBCMT:crtmboxw.obj
 0003:000017a8       ?pfnGetProcessWindowStation@?1??__crtMessageBoxW@@9@9 1001d7a8     LIBCMT:crtmboxw.obj
 0003:000017ac       ?pfnGetUserObjectInformation@?1??__crtMessageBoxW@@9@9 1001d7ac     LIBCMT:crtmboxw.obj
 0003:000017b8       ?outmsg@?8??_NMSG_WRITE@@9@9 1001d7b8     LIBCMT:crt0msg.obj
 0003:00001e04       _fSystemSet                1001de04     LIBCMT:mbctype.obj
 0003:00001f10       ?_pgmname@?1??_setargv@@9@9 1001df10     LIBCMT:stdargv.obj
 0003:00002020       ___type_info_root_node     1001e020     LIBCMT:typname.obj
 0003:00002028       _lclcritsects              1001e028     LIBCMT:mlock.obj
 0003:00002178       _g_pfnRtlGenRandom         1001e178     LIBCMT:rand_s.obj
 0003:00002184       ___crtCallProc             1001e184     LIBCMT:winapinls.obj
 0003:000021bc       _heap                      1001e1bc     LIBCMT:undname.obj
 0003:000021d4       ___enable_percent_n        1001e1d4     LIBCMT:printf.obj
 0003:000021f4       _allocator_arg             1001e1f4     * CIL library *:* CIL module *
 0003:000021f5       _piecewise_construct       1001e1f5     * CIL library *:* CIL module *
 0003:000021f6       _allocator_arg             1001e1f6     * CIL library *:* CIL module *
 0003:000021f7       _piecewise_construct       1001e1f7     * CIL library *:* CIL module *
 0004:00000060       $R000000                   10020060     * linker generated manifest res *

 Exports

  ordinal    name

        1    __register_binding_
               exported name: _register_binding_
